SF:/code/git-metrics/src/backend/command.rs
FN:36,_RNvXNtNtCsbwBEBaEzfvW_11git_metrics7backend7commandNtB2_5ErrorNtNtB6_5error13DetailedError7details
FN:54,_RNvMs_NtNtCsbwBEBaEzfvW_11git_metrics7backend7commandNtB4_14CommandBackend3new
FN:60,_RNvMs0_NtNtCsbwBEBaEzfvW_11git_metrics7backend7commandNtB5_14CommandBackend3cmd
FN:72,_RNvXs1_NtNtCsbwBEBaEzfvW_11git_metrics7backend7commandNtB5_14CommandBackendNtB7_7Backend8rev_list
FN:80,_RNCNvXs1_NtNtCsbwBEBaEzfvW_11git_metrics7backend7commandNtB7_14CommandBackendNtB9_7Backend8rev_list0Bb_
FN:90,_RNvXs1_NtNtCsbwBEBaEzfvW_11git_metrics7backend7commandNtB5_14CommandBackendNtB7_7Backend9rev_parse
FN:96,_RNCNvXs1_NtNtCsbwBEBaEzfvW_11git_metrics7backend7commandNtB7_14CommandBackendNtB9_7Backend9rev_parse0Bb_
FN:98,_RNCNvXs1_NtNtCsbwBEBaEzfvW_11git_metrics7backend7commandNtB7_14CommandBackendNtB9_7Backend9rev_parses_0Bb_
FN:116,_RNvXs1_NtNtCsbwBEBaEzfvW_11git_metrics7backend7commandNtB5_14CommandBackendNtB7_7Backend10list_notes
FN:129,_RNCNvXs1_NtNtCsbwBEBaEzfvW_11git_metrics7backend7commandNtB7_14CommandBackendNtB9_7Backend10list_notes0Bb_
FN:131,_RNCNCNvXs1_NtNtCsbwBEBaEzfvW_11git_metrics7backend7commandNtB9_14CommandBackendNtBb_7Backend10list_notes00Bd_
FN:144,_RNvXs1_NtNtCsbwBEBaEzfvW_11git_metrics7backend7commandNtB5_14CommandBackendNtB7_7Backend11remove_note
FN:163,_RINvXs1_NtNtCsbwBEBaEzfvW_11git_metrics7backend7commandNtB6_14CommandBackendNtB8_7Backend9read_noteNtNtBa_7service10ChangeListEBa_
FN:163,_RINvXs1_NtNtCsbwBEBaEzfvW_11git_metrics7backend7commandNtB6_14CommandBackendNtB8_7Backend9read_noteNtNtBa_7service10MetricListEBa_
FN:192,_RINvXs1_NtNtCsbwBEBaEzfvW_11git_metrics7backend7commandNtB6_14CommandBackendNtB8_7Backend10write_noteNtNtBa_7service10ChangeListEBa_
FN:192,_RINvXs1_NtNtCsbwBEBaEzfvW_11git_metrics7backend7commandNtB6_14CommandBackendNtB8_7Backend10write_noteNtNtBa_7service10MetricListEBa_
FN:221,_RNvXs1_NtNtCsbwBEBaEzfvW_11git_metrics7backend7commandNtB5_14CommandBackendNtB7_7Backend4pull
FN:245,_RNvXs1_NtNtCsbwBEBaEzfvW_11git_metrics7backend7commandNtB5_14CommandBackendNtB7_7Backend4push
FN:265,_RNvXs1_NtNtCsbwBEBaEzfvW_11git_metrics7backend7commandNtB5_14CommandBackendNtB7_7Backend11get_commits
FN:283,_RNCNvXs1_NtNtCsbwBEBaEzfvW_11git_metrics7backend7commandNtB7_14CommandBackendNtB9_7Backend11get_commits0Bb_
FN:284,_RNCNvXs1_NtNtCsbwBEBaEzfvW_11git_metrics7backend7commandNtB7_14CommandBackendNtB9_7Backend11get_commitss_0Bb_
FN:285,_RNCNvXs1_NtNtCsbwBEBaEzfvW_11git_metrics7backend7commandNtB7_14CommandBackendNtB9_7Backend11get_commitss0_0Bb_
FN:286,_RNCNCNvXs1_NtNtCsbwBEBaEzfvW_11git_metrics7backend7commandNtB9_14CommandBackendNtBb_7Backend11get_commitss0_00Bd_
FN:295,_RNvXs1_NtNtCsbwBEBaEzfvW_11git_metrics7backend7commandNtB5_14CommandBackendNtB7_7Backend9root_path
FN:7,_RNvXs4_NtNtCsbwBEBaEzfvW_11git_metrics7backend7commandNtB5_5ErrorNtNtCs2ke5FKHNm4X_4core3fmt7Display3fmt
FN:7,_RNvXs5_NtNtCsbwBEBaEzfvW_11git_metrics7backend7commandNtB5_5ErrorINtNtCs2ke5FKHNm4X_4core7convert4FromNtNtNtCsdxE0gjJwg7i_3std2io5error5ErrorE4from
FN:7,_RNvXs6_NtNtCsbwBEBaEzfvW_11git_metrics7backend7commandNtB5_5ErrorINtNtCs2ke5FKHNm4X_4core7convert4FromNtNtCs62jhQummP4p_4toml2de5ErrorE4from
FN:7,_RNvXs7_NtNtCsbwBEBaEzfvW_11git_metrics7backend7commandNtB5_5ErrorINtNtCs2ke5FKHNm4X_4core7convert4FromNtNtCs62jhQummP4p_4toml3ser5ErrorE4from
FN:7,_RNvXs3_NtNtCsbwBEBaEzfvW_11git_metrics7backend7commandNtB5_5ErrorNtNtCs2ke5FKHNm4X_4core5error5Error6source
FNDA:1,_RNvXNtNtCsbwBEBaEzfvW_11git_metrics7backend7commandNtB2_5ErrorNtNtB6_5error13DetailedError7details
FNDA:35,_RNvMs_NtNtCsbwBEBaEzfvW_11git_metrics7backend7commandNtB4_14CommandBackend3new
FNDA:133,_RNvMs0_NtNtCsbwBEBaEzfvW_11git_metrics7backend7commandNtB5_14CommandBackend3cmd
FNDA:6,_RNvXs1_NtNtCsbwBEBaEzfvW_11git_metrics7backend7commandNtB5_14CommandBackendNtB7_7Backend8rev_list
FNDA:19,_RNCNvXs1_NtNtCsbwBEBaEzfvW_11git_metrics7backend7commandNtB7_14CommandBackendNtB9_7Backend8rev_list0Bb_
FNDA:5,_RNvXs1_NtNtCsbwBEBaEzfvW_11git_metrics7backend7commandNtB5_14CommandBackendNtB7_7Backend9rev_parse
FNDA:10,_RNCNvXs1_NtNtCsbwBEBaEzfvW_11git_metrics7backend7commandNtB7_14CommandBackendNtB9_7Backend9rev_parse0Bb_
FNDA:1,_RNCNvXs1_NtNtCsbwBEBaEzfvW_11git_metrics7backend7commandNtB7_14CommandBackendNtB9_7Backend9rev_parses_0Bb_
FNDA:7,_RNvXs1_NtNtCsbwBEBaEzfvW_11git_metrics7backend7commandNtB5_14CommandBackendNtB7_7Backend10list_notes
FNDA:14,_RNCNvXs1_NtNtCsbwBEBaEzfvW_11git_metrics7backend7commandNtB7_14CommandBackendNtB9_7Backend10list_notes0Bb_
FNDA:7,_RNCNCNvXs1_NtNtCsbwBEBaEzfvW_11git_metrics7backend7commandNtB9_14CommandBackendNtBb_7Backend10list_notes00Bd_
FNDA:3,_RNvXs1_NtNtCsbwBEBaEzfvW_11git_metrics7backend7commandNtB5_14CommandBackendNtB7_7Backend11remove_note
FNDA:42,_RINvXs1_NtNtCsbwBEBaEzfvW_11git_metrics7backend7commandNtB6_14CommandBackendNtB8_7Backend9read_noteNtNtBa_7service10ChangeListEBa_
FNDA:28,_RINvXs1_NtNtCsbwBEBaEzfvW_11git_metrics7backend7commandNtB6_14CommandBackendNtB8_7Backend9read_noteNtNtBa_7service10MetricListEBa_
FNDA:14,_RINvXs1_NtNtCsbwBEBaEzfvW_11git_metrics7backend7commandNtB6_14CommandBackendNtB8_7Backend10write_noteNtNtBa_7service10ChangeListEBa_
FNDA:4,_RINvXs1_NtNtCsbwBEBaEzfvW_11git_metrics7backend7commandNtB6_14CommandBackendNtB8_7Backend10write_noteNtNtBa_7service10MetricListEBa_
FNDA:6,_RNvXs1_NtNtCsbwBEBaEzfvW_11git_metrics7backend7commandNtB5_14CommandBackendNtB7_7Backend4pull
FNDA:4,_RNvXs1_NtNtCsbwBEBaEzfvW_11git_metrics7backend7commandNtB5_14CommandBackendNtB7_7Backend4push
FNDA:1,_RNvXs1_NtNtCsbwBEBaEzfvW_11git_metrics7backend7commandNtB5_14CommandBackendNtB7_7Backend11get_commits
FNDA:2,_RNCNvXs1_NtNtCsbwBEBaEzfvW_11git_metrics7backend7commandNtB7_14CommandBackendNtB9_7Backend11get_commits0Bb_
FNDA:2,_RNCNvXs1_NtNtCsbwBEBaEzfvW_11git_metrics7backend7commandNtB7_14CommandBackendNtB9_7Backend11get_commitss_0Bb_
FNDA:2,_RNCNvXs1_NtNtCsbwBEBaEzfvW_11git_metrics7backend7commandNtB7_14CommandBackendNtB9_7Backend11get_commitss0_0Bb_
FNDA:2,_RNCNCNvXs1_NtNtCsbwBEBaEzfvW_11git_metrics7backend7commandNtB9_14CommandBackendNtBb_7Backend11get_commitss0_00Bd_
FNDA:13,_RNvXs1_NtNtCsbwBEBaEzfvW_11git_metrics7backend7commandNtB5_14CommandBackendNtB7_7Backend9root_path
FNDA:1,_RNvXs4_NtNtCsbwBEBaEzfvW_11git_metrics7backend7commandNtB5_5ErrorNtNtCs2ke5FKHNm4X_4core3fmt7Display3fmt
FNDA:0,_RNvXs5_NtNtCsbwBEBaEzfvW_11git_metrics7backend7commandNtB5_5ErrorINtNtCs2ke5FKHNm4X_4core7convert4FromNtNtNtCsdxE0gjJwg7i_3std2io5error5ErrorE4from
FNDA:0,_RNvXs6_NtNtCsbwBEBaEzfvW_11git_metrics7backend7commandNtB5_5ErrorINtNtCs2ke5FKHNm4X_4core7convert4FromNtNtCs62jhQummP4p_4toml2de5ErrorE4from
FNDA:0,_RNvXs7_NtNtCsbwBEBaEzfvW_11git_metrics7backend7commandNtB5_5ErrorINtNtCs2ke5FKHNm4X_4core7convert4FromNtNtCs62jhQummP4p_4toml3ser5ErrorE4from
FNDA:0,_RNvXs3_NtNtCsbwBEBaEzfvW_11git_metrics7backend7commandNtB5_5ErrorNtNtCs2ke5FKHNm4X_4core5error5Error6source
FNF:23
FNH:23
DA:7,1
DA:36,1
DA:37,1
DA:38,0
DA:39,1
DA:40,1
DA:42,0
DA:43,0
DA:45,1
DA:54,35
DA:55,35
DA:56,35
DA:60,133
DA:61,133
DA:62,133
DA:63,133
DA:64,133
DA:65,133
DA:66,133
DA:72,6
DA:73,6
DA:74,6
DA:75,6
DA:76,6
DA:77,6
DA:78,6
DA:79,6
DA:80,19
DA:81,6
DA:82,6
DA:84,0
DA:85,0
DA:86,0
DA:88,6
DA:90,5
DA:91,5
DA:92,5
DA:93,5
DA:94,5
DA:95,5
DA:96,10
DA:97,5
DA:98,5
DA:99,1
DA:100,1
DA:101,1
DA:102,1
DA:104,4
DA:107,0
DA:110,0
DA:111,0
DA:112,0
DA:114,5
DA:116,7
DA:117,7
DA:118,7
DA:119,7
DA:120,7
DA:121,7
DA:122,7
DA:123,7
DA:124,7
DA:125,7
DA:126,7
DA:127,7
DA:128,7
DA:129,14
DA:130,14
DA:131,14
DA:132,7
DA:133,7
DA:134,14
DA:135,14
DA:136,7
DA:138,0
DA:139,0
DA:140,0
DA:142,7
DA:144,3
DA:145,3
DA:146,3
DA:147,3
DA:148,3
DA:149,3
DA:150,3
DA:151,3
DA:152,3
DA:153,3
DA:154,3
DA:155,3
DA:157,0
DA:158,0
DA:159,0
DA:161,3
DA:163,70
DA:164,70
DA:165,70
DA:166,70
DA:167,70
DA:168,70
DA:169,70
DA:170,70
DA:171,70
DA:172,70
DA:173,70
DA:174,70
DA:175,70
DA:176,70
DA:177,70
DA:178,37
DA:179,37
DA:180,37
DA:181,37
DA:183,33
DA:184,33
DA:185,33
DA:186,33
DA:187,0
DA:188,0
DA:190,70
DA:192,18
DA:193,18
DA:194,18
DA:195,18
DA:196,18
DA:197,18
DA:198,18
DA:199,18
DA:200,18
DA:201,18
DA:202,18
DA:203,18
DA:204,18
DA:205,18
DA:206,18
DA:207,18
DA:208,18
DA:209,18
DA:210,18
DA:212,18
DA:213,18
DA:215,0
DA:216,0
DA:217,0
DA:219,18
DA:221,6
DA:222,6
DA:223,6
DA:224,6
DA:225,6
DA:226,6
DA:227,6
DA:228,6
DA:229,6
DA:230,3
DA:232,3
DA:233,3
DA:235,3
DA:236,3
DA:238,0
DA:239,0
DA:240,0
DA:243,6
DA:245,4
DA:246,4
DA:248,4
DA:249,4
DA:250,4
DA:251,4
DA:252,4
DA:253,4
DA:255,4
DA:256,1
DA:257,1
DA:258,1
DA:259,1
DA:261,3
DA:263,4
DA:265,1
DA:266,1
DA:267,1
DA:268,1
DA:269,1
DA:270,1
DA:271,1
DA:273,1
DA:274,0
DA:275,0
DA:276,0
DA:277,0
DA:279,1
DA:280,1
DA:281,1
DA:282,1
DA:283,2
DA:284,2
DA:285,2
DA:286,2
DA:287,2
DA:288,2
DA:289,2
DA:290,2
DA:291,1
DA:293,1
DA:295,13
DA:296,13
DA:297,13
DA:298,13
DA:299,13
DA:300,13
DA:302,13
DA:303,0
DA:304,0
DA:305,0
DA:306,0
DA:308,13
DA:309,13
DA:310,13
DA:312,13
BRF:0
BRH:0
LF:232
LH:200
end_of_record
SF:/code/git-metrics/src/backend/git2.rs
FN:44,_RNvXNtNtCsbwBEBaEzfvW_11git_metrics7backend4git2NtB2_5ErrorNtNtB6_5error13DetailedError7details
FN:56,_RNvMs_NtNtCsbwBEBaEzfvW_11git_metrics7backend4git2NtB4_5Error4git2B8_
FN:61,_RNvMs_NtNtCsbwBEBaEzfvW_11git_metrics7backend4git2NtB4_5Error4raceB8_
FN:73,_RNvXs0_NtNtCsbwBEBaEzfvW_11git_metrics7backend4git2NtB5_14GitCredentialsINtNtCs2ke5FKHNm4X_4core7convert4FromNtNtB9_3cmd14GitCredentialsE4from
FN:87,_RNvMs1_NtNtCsbwBEBaEzfvW_11git_metrics7backend4git2NtB5_11Git2Backend3new
FN:98,_RNCNvMs1_NtNtCsbwBEBaEzfvW_11git_metrics7backend4git2NtB7_11Git2Backend3new0Bb_
FN:105,_RINvMs1_NtNtCsbwBEBaEzfvW_11git_metrics7backend4git2NtB6_11Git2Backend16with_credentialsNtNtBa_3cmd14GitCredentialsEBa_
FN:110,_RNvMs1_NtNtCsbwBEBaEzfvW_11git_metrics7backend4git2NtB5_11Git2Backend11revision_id
FN:114,_RNCNvMs1_NtNtCsbwBEBaEzfvW_11git_metrics7backend4git2NtB7_11Git2Backend11revision_id0Bb_
FN:115,_RNCNvMs1_NtNtCsbwBEBaEzfvW_11git_metrics7backend4git2NtB7_11Git2Backend11revision_ids_0Bb_
FN:121,_RNvMs1_NtNtCsbwBEBaEzfvW_11git_metrics7backend4git2NtB5_11Git2Backend9signature
FN:123,_RNCNvMs1_NtNtCsbwBEBaEzfvW_11git_metrics7backend4git2NtB7_11Git2Backend9signature0Bb_
FN:129,_RNvMs1_NtNtCsbwBEBaEzfvW_11git_metrics7backend4git2NtB5_11Git2Backend13authenticator
FN:147,_RNvXs2_NtNtCsbwBEBaEzfvW_11git_metrics7backend4git2NtB5_11Git2BackendNtB7_7Backend8rev_list
FN:161,_RNCNvXs2_NtNtCsbwBEBaEzfvW_11git_metrics7backend4git2NtB7_11Git2BackendNtB9_7Backend8rev_list0Bb_
FN:170,_RNCNvXs2_NtNtCsbwBEBaEzfvW_11git_metrics7backend4git2NtB7_11Git2BackendNtB9_7Backend8rev_lists_0Bb_
FN:174,_RNCNvXs2_NtNtCsbwBEBaEzfvW_11git_metrics7backend4git2NtB7_11Git2BackendNtB9_7Backend8rev_lists0_0Bb_
FN:211,_RNvXs2_NtNtCsbwBEBaEzfvW_11git_metrics7backend4git2NtB5_11Git2BackendNtB7_7Backend9rev_parse
FN:218,_RNCNvXs2_NtNtCsbwBEBaEzfvW_11git_metrics7backend4git2NtB7_11Git2BackendNtB9_7Backend9rev_parse0Bb_
FN:225,_RNCNvXs2_NtNtCsbwBEBaEzfvW_11git_metrics7backend4git2NtB7_11Git2BackendNtB9_7Backend9rev_parses_0Bb_
FN:229,_RNCNvXs2_NtNtCsbwBEBaEzfvW_11git_metrics7backend4git2NtB7_11Git2BackendNtB9_7Backend9rev_parses0_0Bb_
FN:241,_RNvXs2_NtNtCsbwBEBaEzfvW_11git_metrics7backend4git2NtB5_11Git2BackendNtB7_7Backend10list_notes
FN:254,_RNCNvXs2_NtNtCsbwBEBaEzfvW_11git_metrics7backend4git2NtB7_11Git2BackendNtB9_7Backend10list_notes0Bb_
FN:255,_RNCNvXs2_NtNtCsbwBEBaEzfvW_11git_metrics7backend4git2NtB7_11Git2BackendNtB9_7Backend10list_notess_0Bb_
FN:262,_RNvXs2_NtNtCsbwBEBaEzfvW_11git_metrics7backend4git2NtB5_11Git2BackendNtB7_7Backend11remove_note
FN:273,_RINvXs2_NtNtCsbwBEBaEzfvW_11git_metrics7backend4git2NtB6_11Git2BackendNtB8_7Backend9read_noteNtNtBa_7service10ChangeListEBa_
FN:273,_RINvXs2_NtNtCsbwBEBaEzfvW_11git_metrics7backend4git2NtB6_11Git2BackendNtB8_7Backend9read_noteNtNtBa_7service10MetricListEBa_
FN:287,_RNCINvXs2_NtNtCsbwBEBaEzfvW_11git_metrics7backend4git2NtB8_11Git2BackendNtBa_7Backend9read_noteNtNtBc_7service10ChangeListE0Bc_
FN:287,_RNCINvXs2_NtNtCsbwBEBaEzfvW_11git_metrics7backend4git2NtB8_11Git2BackendNtBa_7Backend9read_noteNtNtBc_7service10MetricListE0Bc_
FN:289,_RNCNCINvXs2_NtNtCsbwBEBaEzfvW_11git_metrics7backend4git2NtBa_11Git2BackendNtBc_7Backend9read_noteNtNtBe_7service10ChangeListE00Be_
FN:289,_RNCNCINvXs2_NtNtCsbwBEBaEzfvW_11git_metrics7backend4git2NtBa_11Git2BackendNtBc_7Backend9read_noteNtNtBe_7service10MetricListE00Be_
FN:294,_RNCINvXs2_NtNtCsbwBEBaEzfvW_11git_metrics7backend4git2NtB8_11Git2BackendNtBa_7Backend9read_noteNtNtBc_7service10ChangeListEs_0Bc_
FN:294,_RNCINvXs2_NtNtCsbwBEBaEzfvW_11git_metrics7backend4git2NtB8_11Git2BackendNtBa_7Backend9read_noteNtNtBc_7service10MetricListEs_0Bc_
FN:300,_RINvXs2_NtNtCsbwBEBaEzfvW_11git_metrics7backend4git2NtB6_11Git2BackendNtB8_7Backend10write_noteNtNtBa_7service10ChangeListEBa_
FN:300,_RINvXs2_NtNtCsbwBEBaEzfvW_11git_metrics7backend4git2NtB6_11Git2BackendNtB8_7Backend10write_noteNtNtBa_7service10MetricListEBa_
FN:311,_RNCINvXs2_NtNtCsbwBEBaEzfvW_11git_metrics7backend4git2NtB8_11Git2BackendNtBa_7Backend10write_noteNtNtBc_7service10ChangeListE0Bc_
FN:311,_RNCINvXs2_NtNtCsbwBEBaEzfvW_11git_metrics7backend4git2NtB8_11Git2BackendNtBa_7Backend10write_noteNtNtBc_7service10MetricListE0Bc_
FN:329,_RNvXs2_NtNtCsbwBEBaEzfvW_11git_metrics7backend4git2NtB5_11Git2BackendNtB7_7Backend4pull
FN:356,_RNvXs2_NtNtCsbwBEBaEzfvW_11git_metrics7backend4git2NtB5_11Git2BackendNtB7_7Backend4push
FN:368,_RNCNvXs2_NtNtCsbwBEBaEzfvW_11git_metrics7backend4git2NtB7_11Git2BackendNtB9_7Backend4push0Bb_
FN:385,_RNvXs2_NtNtCsbwBEBaEzfvW_11git_metrics7backend4git2NtB5_11Git2BackendNtB7_7Backend11get_commits
FN:398,_RNCNvXs2_NtNtCsbwBEBaEzfvW_11git_metrics7backend4git2NtB7_11Git2BackendNtB9_7Backend11get_commits0Bb_
FN:408,_RNCNvXs2_NtNtCsbwBEBaEzfvW_11git_metrics7backend4git2NtB7_11Git2BackendNtB9_7Backend11get_commitss_0Bb_
FN:414,_RNCNvXs2_NtNtCsbwBEBaEzfvW_11git_metrics7backend4git2NtB7_11Git2BackendNtB9_7Backend11get_commitss0_0Bb_
FN:457,_RNvXs2_NtNtCsbwBEBaEzfvW_11git_metrics7backend4git2NtB5_11Git2BackendNtB7_7Backend9root_path
FN:459,_RNCNvXs2_NtNtCsbwBEBaEzfvW_11git_metrics7backend4git2NtB7_11Git2BackendNtB9_7Backend9root_path0Bb_
FN:19,_RNvXs5_NtNtCsbwBEBaEzfvW_11git_metrics7backend4git2NtB5_5ErrorNtNtCs2ke5FKHNm4X_4core3fmt7Display3fmt
FN:9,_RNCNvXs2_NtNtCsbwBEBaEzfvW_11git_metrics7backend4git2NtB7_11Git2BackendNtB9_7Backend8rev_lists2_0Bb_
FN:9,_RNCNvXs2_NtNtCsbwBEBaEzfvW_11git_metrics7backend4git2NtB7_11Git2BackendNtB9_7Backend8rev_lists3_0Bb_
FN:9,_RNCNvXs2_NtNtCsbwBEBaEzfvW_11git_metrics7backend4git2NtB7_11Git2BackendNtB9_7Backend8rev_lists4_0Bb_
FN:9,_RNCNvXs2_NtNtCsbwBEBaEzfvW_11git_metrics7backend4git2NtB7_11Git2BackendNtB9_7Backend8rev_lists6_0Bb_
FN:9,_RNCNvXs2_NtNtCsbwBEBaEzfvW_11git_metrics7backend4git2NtB7_11Git2BackendNtB9_7Backend8rev_lists8_0Bb_
FN:9,_RNCNvXs2_NtNtCsbwBEBaEzfvW_11git_metrics7backend4git2NtB7_11Git2BackendNtB9_7Backend8rev_listsa_0Bb_
FN:9,_RNCNvXs2_NtNtCsbwBEBaEzfvW_11git_metrics7backend4git2NtB7_11Git2BackendNtB9_7Backend8rev_listsb_0Bb_
FN:9,_RNCNvXs2_NtNtCsbwBEBaEzfvW_11git_metrics7backend4git2NtB7_11Git2BackendNtB9_7Backend8rev_listsc_0Bb_
FN:9,_RNCNvXs2_NtNtCsbwBEBaEzfvW_11git_metrics7backend4git2NtB7_11Git2BackendNtB9_7Backend8rev_listsd_0Bb_
FN:9,_RNCNvXs2_NtNtCsbwBEBaEzfvW_11git_metrics7backend4git2NtB7_11Git2BackendNtB9_7Backend8rev_listse_0Bb_
FN:9,_RNCNvXs2_NtNtCsbwBEBaEzfvW_11git_metrics7backend4git2NtB7_11Git2BackendNtB9_7Backend9rev_parses2_0Bb_
FN:9,_RNCNvXs2_NtNtCsbwBEBaEzfvW_11git_metrics7backend4git2NtB7_11Git2BackendNtB9_7Backend10list_notess1_0Bb_
FN:9,_RNCNvXs2_NtNtCsbwBEBaEzfvW_11git_metrics7backend4git2NtB7_11Git2BackendNtB9_7Backend11remove_notes_0Bb_
FN:9,_RNCINvXs2_NtNtCsbwBEBaEzfvW_11git_metrics7backend4git2NtB8_11Git2BackendNtBa_7Backend10write_noteNtNtBc_7service10ChangeListEs1_0Bc_
FN:9,_RNCINvXs2_NtNtCsbwBEBaEzfvW_11git_metrics7backend4git2NtB8_11Git2BackendNtBa_7Backend10write_noteNtNtBc_7service10MetricListEs1_0Bc_
FN:9,_RNCNvXs2_NtNtCsbwBEBaEzfvW_11git_metrics7backend4git2NtB7_11Git2BackendNtB9_7Backend4pull0Bb_
FN:9,_RNCNvXs2_NtNtCsbwBEBaEzfvW_11git_metrics7backend4git2NtB7_11Git2BackendNtB9_7Backend4pulls_0Bb_
FN:9,_RNCNvXs2_NtNtCsbwBEBaEzfvW_11git_metrics7backend4git2NtB7_11Git2BackendNtB9_7Backend4pulls0_0Bb_
FN:9,_RNCNvXs2_NtNtCsbwBEBaEzfvW_11git_metrics7backend4git2NtB7_11Git2BackendNtB9_7Backend4pushs_0Bb_
FN:9,_RNCNvXs2_NtNtCsbwBEBaEzfvW_11git_metrics7backend4git2NtB7_11Git2BackendNtB9_7Backend4pushs0_0Bb_
FN:9,_RNCNvXs2_NtNtCsbwBEBaEzfvW_11git_metrics7backend4git2NtB7_11Git2BackendNtB9_7Backend4pushs1_0Bb_
FN:9,_RNCNvXs2_NtNtCsbwBEBaEzfvW_11git_metrics7backend4git2NtB7_11Git2BackendNtB9_7Backend11get_commitss1_0Bb_
FN:9,_RNCNvXs2_NtNtCsbwBEBaEzfvW_11git_metrics7backend4git2NtB7_11Git2BackendNtB9_7Backend11get_commitss2_0Bb_
FN:9,_RNCNvXs2_NtNtCsbwBEBaEzfvW_11git_metrics7backend4git2NtB7_11Git2BackendNtB9_7Backend11get_commitss3_0Bb_
FN:9,_RNCNvXs2_NtNtCsbwBEBaEzfvW_11git_metrics7backend4git2NtB7_11Git2BackendNtB9_7Backend11get_commitss4_0Bb_
FN:9,_RNCNvXs2_NtNtCsbwBEBaEzfvW_11git_metrics7backend4git2NtB7_11Git2BackendNtB9_7Backend11get_commitss5_0Bb_
FN:9,_RNCNvXs2_NtNtCsbwBEBaEzfvW_11git_metrics7backend4git2NtB7_11Git2BackendNtB9_7Backend11get_commitss6_0Bb_
FN:9,_RNCNvXs2_NtNtCsbwBEBaEzfvW_11git_metrics7backend4git2NtB7_11Git2BackendNtB9_7Backend11get_commitss7_0Bb_
FN:9,_RNCNvXs2_NtNtCsbwBEBaEzfvW_11git_metrics7backend4git2NtB7_11Git2BackendNtB9_7Backend11get_commitss8_0Bb_
FN:9,_RNCNvXs2_NtNtCsbwBEBaEzfvW_11git_metrics7backend4git2NtB7_11Git2BackendNtB9_7Backend11get_commitss9_0Bb_
FN:9,_RNCNvXs2_NtNtCsbwBEBaEzfvW_11git_metrics7backend4git2NtB7_11Git2BackendNtB9_7Backend11get_commitssa_0Bb_
FN:9,_RNCNvXs2_NtNtCsbwBEBaEzfvW_11git_metrics7backend4git2NtB7_11Git2BackendNtB9_7Backend11get_commitssb_0Bb_
FN:19,_RNvXs4_NtNtCsbwBEBaEzfvW_11git_metrics7backend4git2NtB5_5ErrorNtNtCs2ke5FKHNm4X_4core5error5Error6source
FN:19,_RNvXs6_NtNtCsbwBEBaEzfvW_11git_metrics7backend4git2NtB5_5ErrorINtNtCs2ke5FKHNm4X_4core7convert4FromNtNtCs62jhQummP4p_4toml2de5ErrorE4from
FN:19,_RNvXs7_NtNtCsbwBEBaEzfvW_11git_metrics7backend4git2NtB5_5ErrorINtNtCs2ke5FKHNm4X_4core7convert4FromNtNtCs62jhQummP4p_4toml3ser5ErrorE4from
FNDA:1,_RNvXNtNtCsbwBEBaEzfvW_11git_metrics7backend4git2NtB2_5ErrorNtNtB6_5error13DetailedError7details
FNDA:0,_RNvMs_NtNtCsbwBEBaEzfvW_11git_metrics7backend4git2NtB4_5Error4git2B8_
FNDA:0,_RNvMs_NtNtCsbwBEBaEzfvW_11git_metrics7backend4git2NtB4_5Error4raceB8_
FNDA:53,_RNvXs0_NtNtCsbwBEBaEzfvW_11git_metrics7backend4git2NtB5_14GitCredentialsINtNtCs2ke5FKHNm4X_4core7convert4FromNtNtB9_3cmd14GitCredentialsE4from
FNDA:53,_RNvMs1_NtNtCsbwBEBaEzfvW_11git_metrics7backend4git2NtB5_11Git2Backend3new
FNDA:0,_RNCNvMs1_NtNtCsbwBEBaEzfvW_11git_metrics7backend4git2NtB7_11Git2Backend3new0Bb_
FNDA:53,_RINvMs1_NtNtCsbwBEBaEzfvW_11git_metrics7backend4git2NtB6_11Git2Backend16with_credentialsNtNtBa_3cmd14GitCredentialsEBa_
FNDA:145,_RNvMs1_NtNtCsbwBEBaEzfvW_11git_metrics7backend4git2NtB5_11Git2Backend11revision_id
FNDA:145,_RNCNvMs1_NtNtCsbwBEBaEzfvW_11git_metrics7backend4git2NtB7_11Git2Backend11revision_id0Bb_
FNDA:0,_RNCNvMs1_NtNtCsbwBEBaEzfvW_11git_metrics7backend4git2NtB7_11Git2Backend11revision_ids_0Bb_
FNDA:39,_RNvMs1_NtNtCsbwBEBaEzfvW_11git_metrics7backend4git2NtB5_11Git2Backend9signature
FNDA:0,_RNCNvMs1_NtNtCsbwBEBaEzfvW_11git_metrics7backend4git2NtB7_11Git2Backend9signature0Bb_
FNDA:12,_RNvMs1_NtNtCsbwBEBaEzfvW_11git_metrics7backend4git2NtB5_11Git2Backend13authenticator
FNDA:9,_RNvXs2_NtNtCsbwBEBaEzfvW_11git_metrics7backend4git2NtB5_11Git2BackendNtB7_7Backend8rev_list
FNDA:0,_RNCNvXs2_NtNtCsbwBEBaEzfvW_11git_metrics7backend4git2NtB7_11Git2BackendNtB9_7Backend8rev_list0Bb_
FNDA:0,_RNCNvXs2_NtNtCsbwBEBaEzfvW_11git_metrics7backend4git2NtB7_11Git2BackendNtB9_7Backend8rev_lists_0Bb_
FNDA:0,_RNCNvXs2_NtNtCsbwBEBaEzfvW_11git_metrics7backend4git2NtB7_11Git2BackendNtB9_7Backend8rev_lists0_0Bb_
FNDA:7,_RNvXs2_NtNtCsbwBEBaEzfvW_11git_metrics7backend4git2NtB5_11Git2BackendNtB7_7Backend9rev_parse
FNDA:0,_RNCNvXs2_NtNtCsbwBEBaEzfvW_11git_metrics7backend4git2NtB7_11Git2BackendNtB9_7Backend9rev_parse0Bb_
FNDA:0,_RNCNvXs2_NtNtCsbwBEBaEzfvW_11git_metrics7backend4git2NtB7_11Git2BackendNtB9_7Backend9rev_parses_0Bb_
FNDA:0,_RNCNvXs2_NtNtCsbwBEBaEzfvW_11git_metrics7backend4git2NtB7_11Git2BackendNtB9_7Backend9rev_parses0_0Bb_
FNDA:11,_RNvXs2_NtNtCsbwBEBaEzfvW_11git_metrics7backend4git2NtB5_11Git2BackendNtB7_7Backend10list_notes
FNDA:11,_RNCNvXs2_NtNtCsbwBEBaEzfvW_11git_metrics7backend4git2NtB7_11Git2BackendNtB9_7Backend10list_notes0Bb_
FNDA:11,_RNCNvXs2_NtNtCsbwBEBaEzfvW_11git_metrics7backend4git2NtB7_11Git2BackendNtB9_7Backend10list_notess_0Bb_
FNDA:5,_RNvXs2_NtNtCsbwBEBaEzfvW_11git_metrics7backend4git2NtB5_11Git2BackendNtB7_7Backend11remove_note
FNDA:67,_RINvXs2_NtNtCsbwBEBaEzfvW_11git_metrics7backend4git2NtB6_11Git2BackendNtB8_7Backend9read_noteNtNtBa_7service10ChangeListEBa_
FNDA:39,_RINvXs2_NtNtCsbwBEBaEzfvW_11git_metrics7backend4git2NtB6_11Git2BackendNtB8_7Backend9read_noteNtNtBa_7service10MetricListEBa_
FNDA:42,_RNCINvXs2_NtNtCsbwBEBaEzfvW_11git_metrics7backend4git2NtB8_11Git2BackendNtBa_7Backend9read_noteNtNtBc_7service10ChangeListE0Bc_
FNDA:15,_RNCINvXs2_NtNtCsbwBEBaEzfvW_11git_metrics7backend4git2NtB8_11Git2BackendNtBa_7Backend9read_noteNtNtBc_7service10MetricListE0Bc_
FNDA:0,_RNCNCINvXs2_NtNtCsbwBEBaEzfvW_11git_metrics7backend4git2NtBa_11Git2BackendNtBc_7Backend9read_noteNtNtBe_7service10ChangeListE00Be_
FNDA:0,_RNCNCINvXs2_NtNtCsbwBEBaEzfvW_11git_metrics7backend4git2NtBa_11Git2BackendNtBc_7Backend9read_noteNtNtBe_7service10MetricListE00Be_
FNDA:0,_RNCINvXs2_NtNtCsbwBEBaEzfvW_11git_metrics7backend4git2NtB8_11Git2BackendNtBa_7Backend9read_noteNtNtBc_7service10ChangeListEs_0Bc_
FNDA:0,_RNCINvXs2_NtNtCsbwBEBaEzfvW_11git_metrics7backend4git2NtB8_11Git2BackendNtBa_7Backend9read_noteNtNtBc_7service10MetricListEs_0Bc_
FNDA:28,_RINvXs2_NtNtCsbwBEBaEzfvW_11git_metrics7backend4git2NtB6_11Git2BackendNtB8_7Backend10write_noteNtNtBa_7service10ChangeListEBa_
FNDA:6,_RINvXs2_NtNtCsbwBEBaEzfvW_11git_metrics7backend4git2NtB6_11Git2BackendNtB8_7Backend10write_noteNtNtBa_7service10MetricListEBa_
FNDA:0,_RNCINvXs2_NtNtCsbwBEBaEzfvW_11git_metrics7backend4git2NtB8_11Git2BackendNtBa_7Backend10write_noteNtNtBc_7service10ChangeListE0Bc_
FNDA:0,_RNCINvXs2_NtNtCsbwBEBaEzfvW_11git_metrics7backend4git2NtB8_11Git2BackendNtBa_7Backend10write_noteNtNtBc_7service10MetricListE0Bc_
FNDA:6,_RNvXs2_NtNtCsbwBEBaEzfvW_11git_metrics7backend4git2NtB5_11Git2BackendNtB7_7Backend4pull
FNDA:6,_RNvXs2_NtNtCsbwBEBaEzfvW_11git_metrics7backend4git2NtB5_11Git2BackendNtB7_7Backend4push
FNDA:5,_RNCNvXs2_NtNtCsbwBEBaEzfvW_11git_metrics7backend4git2NtB7_11Git2BackendNtB9_7Backend4push0Bb_
FNDA:1,_RNvXs2_NtNtCsbwBEBaEzfvW_11git_metrics7backend4git2NtB5_11Git2BackendNtB7_7Backend11get_commits
FNDA:0,_RNCNvXs2_NtNtCsbwBEBaEzfvW_11git_metrics7backend4git2NtB7_11Git2BackendNtB9_7Backend11get_commits0Bb_
FNDA:0,_RNCNvXs2_NtNtCsbwBEBaEzfvW_11git_metrics7backend4git2NtB7_11Git2BackendNtB9_7Backend11get_commitss_0Bb_
FNDA:0,_RNCNvXs2_NtNtCsbwBEBaEzfvW_11git_metrics7backend4git2NtB7_11Git2BackendNtB9_7Backend11get_commitss0_0Bb_
FNDA:15,_RNvXs2_NtNtCsbwBEBaEzfvW_11git_metrics7backend4git2NtB5_11Git2BackendNtB7_7Backend9root_path
FNDA:0,_RNCNvXs2_NtNtCsbwBEBaEzfvW_11git_metrics7backend4git2NtB7_11Git2BackendNtB9_7Backend9root_path0Bb_
FNDA:1,_RNvXs5_NtNtCsbwBEBaEzfvW_11git_metrics7backend4git2NtB5_5ErrorNtNtCs2ke5FKHNm4X_4core3fmt7Display3fmt
FNDA:0,_RNCNvXs2_NtNtCsbwBEBaEzfvW_11git_metrics7backend4git2NtB7_11Git2BackendNtB9_7Backend8rev_lists2_0Bb_
FNDA:0,_RNCNvXs2_NtNtCsbwBEBaEzfvW_11git_metrics7backend4git2NtB7_11Git2BackendNtB9_7Backend8rev_lists3_0Bb_
FNDA:0,_RNCNvXs2_NtNtCsbwBEBaEzfvW_11git_metrics7backend4git2NtB7_11Git2BackendNtB9_7Backend8rev_lists4_0Bb_
FNDA:0,_RNCNvXs2_NtNtCsbwBEBaEzfvW_11git_metrics7backend4git2NtB7_11Git2BackendNtB9_7Backend8rev_lists6_0Bb_
FNDA:0,_RNCNvXs2_NtNtCsbwBEBaEzfvW_11git_metrics7backend4git2NtB7_11Git2BackendNtB9_7Backend8rev_lists8_0Bb_
FNDA:0,_RNCNvXs2_NtNtCsbwBEBaEzfvW_11git_metrics7backend4git2NtB7_11Git2BackendNtB9_7Backend8rev_listsa_0Bb_
FNDA:0,_RNCNvXs2_NtNtCsbwBEBaEzfvW_11git_metrics7backend4git2NtB7_11Git2BackendNtB9_7Backend8rev_listsb_0Bb_
FNDA:0,_RNCNvXs2_NtNtCsbwBEBaEzfvW_11git_metrics7backend4git2NtB7_11Git2BackendNtB9_7Backend8rev_listsc_0Bb_
FNDA:0,_RNCNvXs2_NtNtCsbwBEBaEzfvW_11git_metrics7backend4git2NtB7_11Git2BackendNtB9_7Backend8rev_listsd_0Bb_
FNDA:0,_RNCNvXs2_NtNtCsbwBEBaEzfvW_11git_metrics7backend4git2NtB7_11Git2BackendNtB9_7Backend8rev_listse_0Bb_
FNDA:0,_RNCNvXs2_NtNtCsbwBEBaEzfvW_11git_metrics7backend4git2NtB7_11Git2BackendNtB9_7Backend9rev_parses2_0Bb_
FNDA:0,_RNCNvXs2_NtNtCsbwBEBaEzfvW_11git_metrics7backend4git2NtB7_11Git2BackendNtB9_7Backend10list_notess1_0Bb_
FNDA:0,_RNCNvXs2_NtNtCsbwBEBaEzfvW_11git_metrics7backend4git2NtB7_11Git2BackendNtB9_7Backend11remove_notes_0Bb_
FNDA:0,_RNCINvXs2_NtNtCsbwBEBaEzfvW_11git_metrics7backend4git2NtB8_11Git2BackendNtBa_7Backend10write_noteNtNtBc_7service10ChangeListEs1_0Bc_
FNDA:0,_RNCINvXs2_NtNtCsbwBEBaEzfvW_11git_metrics7backend4git2NtB8_11Git2BackendNtBa_7Backend10write_noteNtNtBc_7service10MetricListEs1_0Bc_
FNDA:0,_RNCNvXs2_NtNtCsbwBEBaEzfvW_11git_metrics7backend4git2NtB7_11Git2BackendNtB9_7Backend4pull0Bb_
FNDA:0,_RNCNvXs2_NtNtCsbwBEBaEzfvW_11git_metrics7backend4git2NtB7_11Git2BackendNtB9_7Backend4pulls_0Bb_
FNDA:0,_RNCNvXs2_NtNtCsbwBEBaEzfvW_11git_metrics7backend4git2NtB7_11Git2BackendNtB9_7Backend4pulls0_0Bb_
FNDA:0,_RNCNvXs2_NtNtCsbwBEBaEzfvW_11git_metrics7backend4git2NtB7_11Git2BackendNtB9_7Backend4pushs_0Bb_
FNDA:0,_RNCNvXs2_NtNtCsbwBEBaEzfvW_11git_metrics7backend4git2NtB7_11Git2BackendNtB9_7Backend4pushs0_0Bb_
FNDA:1,_RNCNvXs2_NtNtCsbwBEBaEzfvW_11git_metrics7backend4git2NtB7_11Git2BackendNtB9_7Backend4pushs1_0Bb_
FNDA:0,_RNCNvXs2_NtNtCsbwBEBaEzfvW_11git_metrics7backend4git2NtB7_11Git2BackendNtB9_7Backend11get_commitss1_0Bb_
FNDA:0,_RNCNvXs2_NtNtCsbwBEBaEzfvW_11git_metrics7backend4git2NtB7_11Git2BackendNtB9_7Backend11get_commitss2_0Bb_
FNDA:0,_RNCNvXs2_NtNtCsbwBEBaEzfvW_11git_metrics7backend4git2NtB7_11Git2BackendNtB9_7Backend11get_commitss3_0Bb_
FNDA:0,_RNCNvXs2_NtNtCsbwBEBaEzfvW_11git_metrics7backend4git2NtB7_11Git2BackendNtB9_7Backend11get_commitss4_0Bb_
FNDA:0,_RNCNvXs2_NtNtCsbwBEBaEzfvW_11git_metrics7backend4git2NtB7_11Git2BackendNtB9_7Backend11get_commitss5_0Bb_
FNDA:0,_RNCNvXs2_NtNtCsbwBEBaEzfvW_11git_metrics7backend4git2NtB7_11Git2BackendNtB9_7Backend11get_commitss6_0Bb_
FNDA:0,_RNCNvXs2_NtNtCsbwBEBaEzfvW_11git_metrics7backend4git2NtB7_11Git2BackendNtB9_7Backend11get_commitss7_0Bb_
FNDA:0,_RNCNvXs2_NtNtCsbwBEBaEzfvW_11git_metrics7backend4git2NtB7_11Git2BackendNtB9_7Backend11get_commitss8_0Bb_
FNDA:0,_RNCNvXs2_NtNtCsbwBEBaEzfvW_11git_metrics7backend4git2NtB7_11Git2BackendNtB9_7Backend11get_commitss9_0Bb_
FNDA:0,_RNCNvXs2_NtNtCsbwBEBaEzfvW_11git_metrics7backend4git2NtB7_11Git2BackendNtB9_7Backend11get_commitssa_0Bb_
FNDA:0,_RNCNvXs2_NtNtCsbwBEBaEzfvW_11git_metrics7backend4git2NtB7_11Git2BackendNtB9_7Backend11get_commitssb_0Bb_
FNDA:0,_RNvXs4_NtNtCsbwBEBaEzfvW_11git_metrics7backend4git2NtB5_5ErrorNtNtCs2ke5FKHNm4X_4core5error5Error6source
FNDA:0,_RNvXs6_NtNtCsbwBEBaEzfvW_11git_metrics7backend4git2NtB5_5ErrorINtNtCs2ke5FKHNm4X_4core7convert4FromNtNtCs62jhQummP4p_4toml2de5ErrorE4from
FNDA:0,_RNvXs7_NtNtCsbwBEBaEzfvW_11git_metrics7backend4git2NtB5_5ErrorINtNtCs2ke5FKHNm4X_4core7convert4FromNtNtCs62jhQummP4p_4toml3ser5ErrorE4from
FNF:42
FNH:24
DA:9,1
DA:10,1
DA:11,1
DA:12,1
DA:13,1
DA:14,1
DA:15,1
DA:19,1
DA:44,1
DA:45,1
DA:46,1
DA:47,0
DA:48,0
DA:49,0
DA:51,1
DA:56,0
DA:57,0
DA:58,0
DA:61,0
DA:62,0
DA:63,0
DA:73,53
DA:74,53
DA:75,53
DA:76,53
DA:77,53
DA:78,53
DA:87,53
DA:88,53
DA:89,53
DA:90,53
DA:91,53
DA:94,0
DA:95,0
DA:98,53
DA:99,53
DA:100,53
DA:101,53
DA:102,53
DA:103,53
DA:105,53
DA:106,53
DA:107,53
DA:108,53
DA:110,145
DA:111,145
DA:112,145
DA:113,145
DA:114,145
DA:115,145
DA:116,0
DA:117,0
DA:118,145
DA:119,145
DA:121,39
DA:122,39
DA:123,39
DA:124,0
DA:125,0
DA:126,39
DA:127,39
DA:129,12
DA:130,12
DA:131,12
DA:132,12
DA:133,12
DA:135,0
DA:136,0
DA:138,0
DA:139,12
DA:141,12
DA:147,9
DA:148,9
DA:149,9
DA:150,9
DA:151,9
DA:152,9
DA:153,9
DA:154,9
DA:155,9
DA:156,9
DA:157,9
DA:158,9
DA:159,9
DA:160,9
DA:161,7
DA:162,0
DA:163,0
DA:164,7
DA:165,7
DA:166,7
DA:167,7
DA:168,7
DA:170,2
DA:171,0
DA:172,0
DA:173,2
DA:174,2
DA:175,0
DA:176,0
DA:177,2
DA:178,2
DA:179,2
DA:180,2
DA:181,2
DA:182,2
DA:183,0
DA:184,0
DA:185,0
DA:186,0
DA:187,0
DA:188,0
DA:189,0
DA:190,0
DA:191,0
DA:192,0
DA:193,0
DA:194,0
DA:195,2
DA:196,2
DA:197,2
DA:198,2
DA:201,9
DA:202,30
DA:203,21
DA:204,21
DA:205,21
DA:208,9
DA:209,9
DA:211,7
DA:212,7
DA:213,7
DA:214,7
DA:215,7
DA:216,7
DA:217,7
DA:218,5
DA:219,0
DA:220,0
DA:221,5
DA:222,5
DA:223,5
DA:225,2
DA:226,0
DA:227,0
DA:228,2
DA:229,2
DA:230,0
DA:231,0
DA:232,2
DA:233,2
DA:234,2
DA:235,2
DA:236,2
DA:237,2
DA:239,7
DA:241,11
DA:242,11
DA:243,11
DA:244,11
DA:245,0
DA:246,0
DA:247,0
DA:248,0
DA:249,0
DA:250,0
DA:253,11
DA:254,11
DA:255,11
DA:256,11
DA:257,11
DA:258,11
DA:259,11
DA:260,11
DA:262,5
DA:263,5
DA:264,5
DA:265,5
DA:266,5
DA:267,5
DA:268,5
DA:270,5
DA:271,5
DA:273,106
DA:274,106
DA:275,106
DA:276,106
DA:277,106
DA:278,106
DA:279,106
DA:281,106
DA:282,49
DA:283,49
DA:286,57
DA:287,57
DA:288,57
DA:289,57
DA:290,0
DA:291,0
DA:292,57
DA:293,57
DA:294,57
DA:295,0
DA:296,0
DA:297,57
DA:298,106
DA:300,34
DA:301,34
DA:302,34
DA:303,34
DA:304,34
DA:305,34
DA:306,34
DA:307,34
DA:308,34
DA:310,34
DA:311,34
DA:312,0
DA:313,0
DA:314,34
DA:315,34
DA:316,34
DA:317,34
DA:318,34
DA:319,34
DA:320,34
DA:321,34
DA:322,34
DA:323,34
DA:324,34
DA:326,34
DA:327,34
DA:329,6
DA:330,6
DA:331,6
DA:332,6
DA:333,6
DA:334,6
DA:335,6
DA:336,6
DA:337,6
DA:339,6
DA:340,6
DA:341,6
DA:342,6
DA:343,6
DA:344,6
DA:345,6
DA:346,6
DA:347,6
DA:348,6
DA:349,6
DA:350,6
DA:351,6
DA:353,6
DA:354,6
DA:356,6
DA:357,6
DA:358,6
DA:359,6
DA:360,6
DA:361,6
DA:362,6
DA:363,6
DA:364,6
DA:365,6
DA:366,6
DA:367,6
DA:368,6
DA:369,5
DA:370,5
DA:371,6
DA:372,6
DA:373,6
DA:374,6
DA:375,6
DA:376,6
DA:377,6
DA:378,6
DA:379,6
DA:380,6
DA:381,6
DA:382,6
DA:383,6
DA:385,1
DA:386,1
DA:387,1
DA:388,1
DA:389,1
DA:390,1
DA:391,1
DA:392,1
DA:393,1
DA:394,1
DA:395,1
DA:396,1
DA:397,1
DA:398,1
DA:399,0
DA:400,0
DA:401,0
DA:402,0
DA:403,1
DA:404,1
DA:405,1
DA:406,1
DA:408,0
DA:409,0
DA:410,0
DA:411,0
DA:412,0
DA:413,0
DA:414,0
DA:415,0
DA:416,0
DA:417,0
DA:418,0
DA:419,0
DA:420,0
DA:421,0
DA:422,0
DA:423,0
DA:424,0
DA:425,0
DA:426,0
DA:427,0
DA:428,0
DA:429,0
DA:430,0
DA:431,0
DA:432,0
DA:433,0
DA:434,0
DA:435,0
DA:436,0
DA:439,1
DA:440,3
DA:441,2
DA:442,2
DA:443,2
DA:444,2
DA:445,2
DA:446,2
DA:447,2
DA:448,2
DA:449,2
DA:450,2
DA:451,2
DA:454,1
DA:455,1
DA:457,15
DA:458,15
DA:459,15
DA:460,0
DA:461,0
DA:462,15
DA:463,15
BRF:0
BRH:0
LF:396
LH:276
end_of_record
SF:/code/git-metrics/src/backend/mock.rs
FN:15,_RNvMNtNtCsbwBEBaEzfvW_11git_metrics7backend4mockNtB2_5Error3new
FN:21,_RNvXs_NtNtCsbwBEBaEzfvW_11git_metrics7backend4mockNtB4_5ErrorNtNtCs2ke5FKHNm4X_4core3fmt7Display3fmt
FN:29,_RNvXs1_NtNtCsbwBEBaEzfvW_11git_metrics7backend4mockNtB5_5ErrorNtNtB9_5error13DetailedError7details
FN:47,_RNvXs2_NtNtCsbwBEBaEzfvW_11git_metrics7backend4mockNtB5_16MockBackendInnerNtNtCs2ke5FKHNm4X_4core7default7Default7default
FN:59,_RNvMs3_NtNtCsbwBEBaEzfvW_11git_metrics7backend4mockNtB5_11MockBackend8get_note
FN:64,_RINvMs3_NtNtCsbwBEBaEzfvW_11git_metrics7backend4mockNtB6_11MockBackend8set_noteNtNtCs2wnU2autU56_5alloc6string6StringEBa_
FN:64,_RINvMs3_NtNtCsbwBEBaEzfvW_11git_metrics7backend4mockNtB6_11MockBackend8set_noteReEBa_
FN:69,_RINvMs3_NtNtCsbwBEBaEzfvW_11git_metrics7backend4mockNtB6_11MockBackend12set_rev_listReB1k_AB1k_j1_EBa_
FN:69,_RINvMs3_NtNtCsbwBEBaEzfvW_11git_metrics7backend4mockNtB6_11MockBackend12set_rev_listReB1k_AB1k_j2_EBa_
FN:69,_RINvMs3_NtNtCsbwBEBaEzfvW_11git_metrics7backend4mockNtB6_11MockBackend12set_rev_listReB1k_AB1k_j3_EBa_
FN:69,_RINvMs3_NtNtCsbwBEBaEzfvW_11git_metrics7backend4mockNtB6_11MockBackend12set_rev_listReB1k_AB1k_j4_EBa_
FN:80,_RINvMs3_NtNtCsbwBEBaEzfvW_11git_metrics7backend4mockNtB6_11MockBackend13set_rev_parseReEBa_
FN:84,_RNvMs3_NtNtCsbwBEBaEzfvW_11git_metrics7backend4mockNtB5_11MockBackend10set_config
FN:93,_RNvXs4_NtNtCsbwBEBaEzfvW_11git_metrics7backend4mockNtB5_11MockBackendNtB7_7Backend8rev_list
FN:103,_RNvXs4_NtNtCsbwBEBaEzfvW_11git_metrics7backend4mockNtB5_11MockBackendNtB7_7Backend9rev_parse
FN:109,_RNCNvXs4_NtNtCsbwBEBaEzfvW_11git_metrics7backend4mockNtB7_11MockBackendNtB9_7Backend9rev_parse0Bb_
FN:112,_RNvXs4_NtNtCsbwBEBaEzfvW_11git_metrics7backend4mockNtB5_11MockBackendNtB7_7Backend10list_notes
FN:116,_RNvXs4_NtNtCsbwBEBaEzfvW_11git_metrics7backend4mockNtB5_11MockBackendNtB7_7Backend11remove_note
FN:122,_RNvXs4_NtNtCsbwBEBaEzfvW_11git_metrics7backend4mockNtB5_11MockBackendNtB7_7Backend4pull
FN:126,_RNvXs4_NtNtCsbwBEBaEzfvW_11git_metrics7backend4mockNtB5_11MockBackendNtB7_7Backend4push
FN:130,_RINvXs4_NtNtCsbwBEBaEzfvW_11git_metrics7backend4mockNtB6_11MockBackendNtB8_7Backend9read_noteNtNtBa_7service10ChangeListEBa_
FN:130,_RINvXs4_NtNtCsbwBEBaEzfvW_11git_metrics7backend4mockNtB6_11MockBackendNtB8_7Backend9read_noteNtNtBa_7service10MetricListEBa_
FN:138,_RNCINvXs4_NtNtCsbwBEBaEzfvW_11git_metrics7backend4mockNtB8_11MockBackendNtBa_7Backend9read_noteNtNtBc_7service10ChangeListE0Bc_
FN:138,_RNCINvXs4_NtNtCsbwBEBaEzfvW_11git_metrics7backend4mockNtB8_11MockBackendNtBa_7Backend9read_noteNtNtBc_7service10MetricListE0Bc_
FN:145,_RINvXs4_NtNtCsbwBEBaEzfvW_11git_metrics7backend4mockNtB6_11MockBackendNtB8_7Backend10write_noteNtNtBa_7service10ChangeListEBa_
FN:145,_RINvXs4_NtNtCsbwBEBaEzfvW_11git_metrics7backend4mockNtB6_11MockBackendNtB8_7Backend10write_noteNtNtBa_7service10MetricListEBa_
FN:153,_RNCINvXs4_NtNtCsbwBEBaEzfvW_11git_metrics7backend4mockNtB8_11MockBackendNtBa_7Backend10write_noteNtNtBc_7service10ChangeListE0Bc_
FN:153,_RNCINvXs4_NtNtCsbwBEBaEzfvW_11git_metrics7backend4mockNtB8_11MockBackendNtBa_7Backend10write_noteNtNtBc_7service10MetricListE0Bc_
FN:158,_RNvXs4_NtNtCsbwBEBaEzfvW_11git_metrics7backend4mockNtB5_11MockBackendNtB7_7Backend11get_commits
FN:162,_RNvXs4_NtNtCsbwBEBaEzfvW_11git_metrics7backend4mockNtB5_11MockBackendNtB7_7Backend9root_path
FNDA:0,_RNvMNtNtCsbwBEBaEzfvW_11git_metrics7backend4mockNtB2_5Error3new
FNDA:0,_RNvXs_NtNtCsbwBEBaEzfvW_11git_metrics7backend4mockNtB4_5ErrorNtNtCs2ke5FKHNm4X_4core3fmt7Display3fmt
FNDA:0,_RNvXs1_NtNtCsbwBEBaEzfvW_11git_metrics7backend4mockNtB5_5ErrorNtNtB9_5error13DetailedError7details
FNDA:11,_RNvXs2_NtNtCsbwBEBaEzfvW_11git_metrics7backend4mockNtB5_16MockBackendInnerNtNtCs2ke5FKHNm4X_4core7default7Default7default
FNDA:2,_RNvMs3_NtNtCsbwBEBaEzfvW_11git_metrics7backend4mockNtB5_11MockBackend8get_note
FNDA:3,_RINvMs3_NtNtCsbwBEBaEzfvW_11git_metrics7backend4mockNtB6_11MockBackend8set_noteNtNtCs2wnU2autU56_5alloc6string6StringEBa_
FNDA:9,_RINvMs3_NtNtCsbwBEBaEzfvW_11git_metrics7backend4mockNtB6_11MockBackend8set_noteReEBa_
FNDA:2,_RINvMs3_NtNtCsbwBEBaEzfvW_11git_metrics7backend4mockNtB6_11MockBackend12set_rev_listReB1k_AB1k_j1_EBa_
FNDA:2,_RINvMs3_NtNtCsbwBEBaEzfvW_11git_metrics7backend4mockNtB6_11MockBackend12set_rev_listReB1k_AB1k_j2_EBa_
FNDA:2,_RINvMs3_NtNtCsbwBEBaEzfvW_11git_metrics7backend4mockNtB6_11MockBackend12set_rev_listReB1k_AB1k_j3_EBa_
FNDA:1,_RINvMs3_NtNtCsbwBEBaEzfvW_11git_metrics7backend4mockNtB6_11MockBackend12set_rev_listReB1k_AB1k_j4_EBa_
FNDA:4,_RINvMs3_NtNtCsbwBEBaEzfvW_11git_metrics7backend4mockNtB6_11MockBackend13set_rev_parseReEBa_
FNDA:2,_RNvMs3_NtNtCsbwBEBaEzfvW_11git_metrics7backend4mockNtB5_11MockBackend10set_config
FNDA:7,_RNvXs4_NtNtCsbwBEBaEzfvW_11git_metrics7backend4mockNtB5_11MockBackendNtB7_7Backend8rev_list
FNDA:4,_RNvXs4_NtNtCsbwBEBaEzfvW_11git_metrics7backend4mockNtB5_11MockBackendNtB7_7Backend9rev_parse
FNDA:0,_RNCNvXs4_NtNtCsbwBEBaEzfvW_11git_metrics7backend4mockNtB7_11MockBackendNtB9_7Backend9rev_parse0Bb_
FNDA:0,_RNvXs4_NtNtCsbwBEBaEzfvW_11git_metrics7backend4mockNtB5_11MockBackendNtB7_7Backend10list_notes
FNDA:0,_RNvXs4_NtNtCsbwBEBaEzfvW_11git_metrics7backend4mockNtB5_11MockBackendNtB7_7Backend11remove_note
FNDA:0,_RNvXs4_NtNtCsbwBEBaEzfvW_11git_metrics7backend4mockNtB5_11MockBackendNtB7_7Backend4pull
FNDA:0,_RNvXs4_NtNtCsbwBEBaEzfvW_11git_metrics7backend4mockNtB5_11MockBackendNtB7_7Backend4push
FNDA:23,_RINvXs4_NtNtCsbwBEBaEzfvW_11git_metrics7backend4mockNtB6_11MockBackendNtB8_7Backend9read_noteNtNtBa_7service10ChangeListEBa_
FNDA:20,_RINvXs4_NtNtCsbwBEBaEzfvW_11git_metrics7backend4mockNtB6_11MockBackendNtB8_7Backend9read_noteNtNtBa_7service10MetricListEBa_
FNDA:0,_RNCINvXs4_NtNtCsbwBEBaEzfvW_11git_metrics7backend4mockNtB8_11MockBackendNtBa_7Backend9read_noteNtNtBc_7service10ChangeListE0Bc_
FNDA:0,_RNCINvXs4_NtNtCsbwBEBaEzfvW_11git_metrics7backend4mockNtB8_11MockBackendNtBa_7Backend9read_noteNtNtBc_7service10MetricListE0Bc_
FNDA:3,_RINvXs4_NtNtCsbwBEBaEzfvW_11git_metrics7backend4mockNtB6_11MockBackendNtB8_7Backend10write_noteNtNtBa_7service10ChangeListEBa_
FNDA:0,_RINvXs4_NtNtCsbwBEBaEzfvW_11git_metrics7backend4mockNtB6_11MockBackendNtB8_7Backend10write_noteNtNtBa_7service10MetricListEBa_
FNDA:0,_RNCINvXs4_NtNtCsbwBEBaEzfvW_11git_metrics7backend4mockNtB8_11MockBackendNtBa_7Backend10write_noteNtNtBc_7service10ChangeListE0Bc_
FNDA:0,_RNCINvXs4_NtNtCsbwBEBaEzfvW_11git_metrics7backend4mockNtB8_11MockBackendNtBa_7Backend10write_noteNtNtBc_7service10MetricListE0Bc_
FNDA:0,_RNvXs4_NtNtCsbwBEBaEzfvW_11git_metrics7backend4mockNtB5_11MockBackendNtB7_7Backend11get_commits
FNDA:4,_RNvXs4_NtNtCsbwBEBaEzfvW_11git_metrics7backend4mockNtB5_11MockBackendNtB7_7Backend9root_path
FNF:22
FNH:11
DA:15,0
DA:16,0
DA:17,0
DA:21,0
DA:22,0
DA:23,0
DA:29,0
DA:30,0
DA:31,0
DA:47,11
DA:48,11
DA:49,11
DA:50,11
DA:51,11
DA:52,11
DA:53,11
DA:54,11
DA:55,11
DA:59,2
DA:60,2
DA:61,2
DA:62,2
DA:64,12
DA:65,12
DA:66,12
DA:67,12
DA:69,7
DA:70,7
DA:71,7
DA:72,7
DA:73,7
DA:74,7
DA:75,7
DA:76,7
DA:77,7
DA:78,7
DA:80,4
DA:81,4
DA:82,4
DA:84,2
DA:85,2
DA:86,2
DA:87,2
DA:93,7
DA:94,7
DA:95,7
DA:96,7
DA:97,7
DA:98,7
DA:99,7
DA:100,7
DA:101,7
DA:103,4
DA:104,4
DA:105,4
DA:106,4
DA:107,4
DA:108,4
DA:109,4
DA:110,4
DA:112,0
DA:113,0
DA:116,0
DA:117,0
DA:118,0
DA:119,0
DA:120,0
DA:122,0
DA:123,0
DA:126,0
DA:127,0
DA:130,43
DA:131,43
DA:132,43
DA:133,43
DA:134,43
DA:135,43
DA:136,43
DA:137,12
DA:138,12
DA:139,12
DA:141,31
DA:143,43
DA:145,3
DA:146,3
DA:147,3
DA:148,3
DA:149,3
DA:150,3
DA:151,3
DA:152,3
DA:153,3
DA:154,3
DA:155,3
DA:156,3
DA:158,0
DA:159,0
DA:160,0
DA:162,4
DA:163,4
DA:164,4
BRF:0
BRH:0
LF:104
LH:78
end_of_record
SF:/code/git-metrics/src/backend/mod.rs
FN:35,_RNvXNtCsbwBEBaEzfvW_11git_metrics7backendNtB2_5ErrorNtNtB4_5error13DetailedError7details
FN:54,_RINvMs_NtCsbwBEBaEzfvW_11git_metrics7backendNtB5_7NoteRef14remote_metricsRNtNtCs2wnU2autU56_5alloc6string6StringEB7_
FN:54,_RINvMs_NtCsbwBEBaEzfvW_11git_metrics7backendNtB5_7NoteRef14remote_metricsReEB7_
FN:60,_RNvXs0_NtCsbwBEBaEzfvW_11git_metrics7backendNtB5_7NoteRefNtNtCs2ke5FKHNm4X_4core3fmt7Display3fmt
FN:87,_RNvXs1_NtCsbwBEBaEzfvW_11git_metrics7backendNtB5_8RevParseNtNtCs2ke5FKHNm4X_4core3fmt7Display3fmt
FN:21,_RNvXs4_NtCsbwBEBaEzfvW_11git_metrics7backendNtB5_5ErrorNtNtCs2ke5FKHNm4X_4core3fmt7Display3fmt
FN:21,_RNvXs5_NtCsbwBEBaEzfvW_11git_metrics7backendNtB5_5ErrorINtNtCs2ke5FKHNm4X_4core7convert4FromNtNtB5_7command5ErrorE4from
FN:21,_RNvXs6_NtCsbwBEBaEzfvW_11git_metrics7backendNtB5_5ErrorINtNtCs2ke5FKHNm4X_4core7convert4FromNtNtB5_4git25ErrorE4from
FN:21,_RNvXs7_NtCsbwBEBaEzfvW_11git_metrics7backendNtB5_5ErrorINtNtCs2ke5FKHNm4X_4core7convert4FromNtNtB5_4mock5ErrorE4from
FN:21,_RNvXs3_NtCsbwBEBaEzfvW_11git_metrics7backendNtB5_5ErrorNtNtCs2ke5FKHNm4X_4core5error5Error6source
FN:68,_RNvXNvXNvNtCsbwBEBaEzfvW_11git_metrics7backends_1__NtB7_11NoteContentNtNtCslI84mjRi2PN_5serde2de11Deserialize11deserializeNtB2_14___FieldVisitorNtB17_7Visitor9expecting
FN:68,_RINvXNvXNvNtCsbwBEBaEzfvW_11git_metrics7backends_1__NtB8_11NoteContentNtNtCslI84mjRi2PN_5serde2de11Deserialize11deserializeNtB3_14___FieldVisitorNtB18_7Visitor9visit_u64pEBa_
FN:68,_RINvXNvXNvNtCsbwBEBaEzfvW_11git_metrics7backends_1__NtB8_11NoteContentNtNtCslI84mjRi2PN_5serde2de11Deserialize11deserializeNtB3_14___FieldVisitorNtB18_7Visitor9visit_strpEBa_
FN:68,_RINvXNvXNvNtCsbwBEBaEzfvW_11git_metrics7backends_1__NtB8_11NoteContentNtNtCslI84mjRi2PN_5serde2de11Deserialize11deserializeNtB3_14___FieldVisitorNtB18_7Visitor11visit_bytespEBa_
FN:68,_RINvXs_NvXNvNtCsbwBEBaEzfvW_11git_metrics7backends_1__NtBa_11NoteContentNtNtCslI84mjRi2PN_5serde2de11Deserialize11deserializeNtB5_7___FieldB18_11deserializepEBc_
FN:68,_RNvXs0_NvXNvNtCsbwBEBaEzfvW_11git_metrics7backends_1__NtBa_11NoteContentNtNtCslI84mjRi2PN_5serde2de11Deserialize11deserializeNtB5_9___VisitorNtB1a_7Visitor9expecting
FN:68,_RINvXs0_NvXNvNtCsbwBEBaEzfvW_11git_metrics7backends_1__NtBb_11NoteContentNtNtCslI84mjRi2PN_5serde2de11Deserialize11deserializeNtB6_9___VisitorNtB1b_7Visitor9visit_seqpEBd_
FN:68,_RINvXs0_NvXNvNtCsbwBEBaEzfvW_11git_metrics7backends_1__NtBb_11NoteContentNtNtCslI84mjRi2PN_5serde2de11Deserialize11deserializeNtB6_9___VisitorNtB1b_7Visitor9visit_mappEBd_
FNDA:2,_RNvXNtCsbwBEBaEzfvW_11git_metrics7backendNtB2_5ErrorNtNtB4_5error13DetailedError7details
FNDA:22,_RINvMs_NtCsbwBEBaEzfvW_11git_metrics7backendNtB5_7NoteRef14remote_metricsRNtNtCs2wnU2autU56_5alloc6string6StringEB7_
FNDA:88,_RINvMs_NtCsbwBEBaEzfvW_11git_metrics7backendNtB5_7NoteRef14remote_metricsReEB7_
FNDA:347,_RNvXs0_NtCsbwBEBaEzfvW_11git_metrics7backendNtB5_7NoteRefNtNtCs2ke5FKHNm4X_4core3fmt7Display3fmt
FNDA:6,_RNvXs1_NtCsbwBEBaEzfvW_11git_metrics7backendNtB5_8RevParseNtNtCs2ke5FKHNm4X_4core3fmt7Display3fmt
FNDA:2,_RNvXs4_NtCsbwBEBaEzfvW_11git_metrics7backendNtB5_5ErrorNtNtCs2ke5FKHNm4X_4core3fmt7Display3fmt
FNDA:1,_RNvXs5_NtCsbwBEBaEzfvW_11git_metrics7backendNtB5_5ErrorINtNtCs2ke5FKHNm4X_4core7convert4FromNtNtB5_7command5ErrorE4from
FNDA:1,_RNvXs6_NtCsbwBEBaEzfvW_11git_metrics7backendNtB5_5ErrorINtNtCs2ke5FKHNm4X_4core7convert4FromNtNtB5_4git25ErrorE4from
FNDA:0,_RNvXs7_NtCsbwBEBaEzfvW_11git_metrics7backendNtB5_5ErrorINtNtCs2ke5FKHNm4X_4core7convert4FromNtNtB5_4mock5ErrorE4from
FNDA:0,_RNvXs3_NtCsbwBEBaEzfvW_11git_metrics7backendNtB5_5ErrorNtNtCs2ke5FKHNm4X_4core5error5Error6source
FNDA:0,_RNvXNvXNvNtCsbwBEBaEzfvW_11git_metrics7backends_1__NtB7_11NoteContentNtNtCslI84mjRi2PN_5serde2de11Deserialize11deserializeNtB2_14___FieldVisitorNtB17_7Visitor9expecting
FNDA:0,_RINvXNvXNvNtCsbwBEBaEzfvW_11git_metrics7backends_1__NtB8_11NoteContentNtNtCslI84mjRi2PN_5serde2de11Deserialize11deserializeNtB3_14___FieldVisitorNtB18_7Visitor9visit_u64pEBa_
FNDA:0,_RINvXNvXNvNtCsbwBEBaEzfvW_11git_metrics7backends_1__NtB8_11NoteContentNtNtCslI84mjRi2PN_5serde2de11Deserialize11deserializeNtB3_14___FieldVisitorNtB18_7Visitor9visit_strpEBa_
FNDA:0,_RINvXNvXNvNtCsbwBEBaEzfvW_11git_metrics7backends_1__NtB8_11NoteContentNtNtCslI84mjRi2PN_5serde2de11Deserialize11deserializeNtB3_14___FieldVisitorNtB18_7Visitor11visit_bytespEBa_
FNDA:0,_RINvXs_NvXNvNtCsbwBEBaEzfvW_11git_metrics7backends_1__NtBa_11NoteContentNtNtCslI84mjRi2PN_5serde2de11Deserialize11deserializeNtB5_7___FieldB18_11deserializepEBc_
FNDA:0,_RNvXs0_NvXNvNtCsbwBEBaEzfvW_11git_metrics7backends_1__NtBa_11NoteContentNtNtCslI84mjRi2PN_5serde2de11Deserialize11deserializeNtB5_9___VisitorNtB1a_7Visitor9expecting
FNDA:0,_RINvXs0_NvXNvNtCsbwBEBaEzfvW_11git_metrics7backends_1__NtBb_11NoteContentNtNtCslI84mjRi2PN_5serde2de11Deserialize11deserializeNtB6_9___VisitorNtB1b_7Visitor9visit_seqpEBd_
FNDA:0,_RINvXs0_NvXNvNtCsbwBEBaEzfvW_11git_metrics7backends_1__NtBb_11NoteContentNtNtCslI84mjRi2PN_5serde2de11Deserialize11deserializeNtB6_9___VisitorNtB1b_7Visitor9visit_mappEBd_
FNF:6
FNH:5
DA:21,2
DA:35,2
DA:36,2
DA:38,1
DA:40,1
DA:42,0
DA:44,2
DA:54,110
DA:55,110
DA:56,110
DA:60,347
DA:61,347
DA:62,217
DA:63,130
DA:65,347
DA:68,0
DA:87,6
DA:88,6
DA:89,0
DA:90,6
DA:92,6
BRF:0
BRH:0
LF:21
LH:18
end_of_record
SF:/code/git-metrics/src/cmd/add.rs
FN:11,_RNCNvXs1_NtNtCsbwBEBaEzfvW_11git_metrics3cmd3addNtB7_10CommandAddNtNtCs5tKP36R4pfF_12clap_builder6derive14FromArgMatches20from_arg_matches_mut0Bb_
FN:13,_RNCNvXs1_NtNtCsbwBEBaEzfvW_11git_metrics3cmd3addNtB7_10CommandAddNtNtCs5tKP36R4pfF_12clap_builder6derive14FromArgMatches20from_arg_matches_muts_0Bb_
FN:16,_RNCNvXs1_NtNtCsbwBEBaEzfvW_11git_metrics3cmd3addNtB7_10CommandAddNtNtCs5tKP36R4pfF_12clap_builder6derive14FromArgMatches20from_arg_matches_muts0_0Bb_
FN:18,_RNCNvXs1_NtNtCsbwBEBaEzfvW_11git_metrics3cmd3addNtB7_10CommandAddNtNtCs5tKP36R4pfF_12clap_builder6derive14FromArgMatches20from_arg_matches_muts1_0Bb_
FN:22,_RINvXNtNtCsbwBEBaEzfvW_11git_metrics3cmd3addNtB3_10CommandAddNtB5_8Executor7executeNtNtNtB7_7backend4git211Git2BackendINtNtB5_7prelude11BasicWriterQINtNtCs2wnU2autU56_5alloc3vec3VechEEEB7_
FN:22,_RINvXNtNtCsbwBEBaEzfvW_11git_metrics3cmd3addNtB3_10CommandAddNtB5_8Executor7executeNtNtNtB7_7backend4git211Git2BackendINtNtB5_7prelude13ColoredWriterQINtNtCs2wnU2autU56_5alloc3vec3VechEEEB7_
FN:22,_RINvXNtNtCsbwBEBaEzfvW_11git_metrics3cmd3addNtB3_10CommandAddNtB5_8Executor7executeNtNtNtB7_7backend4mock11MockBackendINtNtB5_7prelude11BasicWriterQINtNtCs2wnU2autU56_5alloc3vec3VechEEEB7_
FN:22,_RINvXNtNtCsbwBEBaEzfvW_11git_metrics3cmd3addNtB3_10CommandAddNtB5_8Executor7executeNtNtNtB7_7backend4mock11MockBackendINtNtB5_7prelude13ColoredWriterQINtNtCs2wnU2autU56_5alloc3vec3VechEEEB7_
FN:22,_RINvXNtNtCsbwBEBaEzfvW_11git_metrics3cmd3addNtB3_10CommandAddNtB5_8Executor7executeNtNtNtB7_7backend7command14CommandBackendINtNtB5_7prelude11BasicWriterQINtNtCs2wnU2autU56_5alloc3vec3VechEEEB7_
FN:22,_RINvXNtNtCsbwBEBaEzfvW_11git_metrics3cmd3addNtB3_10CommandAddNtB5_8Executor7executeNtNtNtB7_7backend7command14CommandBackendINtNtB5_7prelude13ColoredWriterQINtNtCs2wnU2autU56_5alloc3vec3VechEEEB7_
FN:34,_RNCINvXNtNtCsbwBEBaEzfvW_11git_metrics3cmd3addNtB5_10CommandAddNtB7_8Executor7executeNtNtNtB9_7backend4git211Git2BackendINtNtB7_7prelude11BasicWriterQINtNtCs2wnU2autU56_5alloc3vec3VechEEE0B9_
FN:34,_RNCINvXNtNtCsbwBEBaEzfvW_11git_metrics3cmd3addNtB5_10CommandAddNtB7_8Executor7executeNtNtNtB9_7backend4git211Git2BackendINtNtB7_7prelude13ColoredWriterQINtNtCs2wnU2autU56_5alloc3vec3VechEEE0B9_
FN:34,_RNCINvXNtNtCsbwBEBaEzfvW_11git_metrics3cmd3addNtB5_10CommandAddNtB7_8Executor7executeNtNtNtB9_7backend4mock11MockBackendINtNtB7_7prelude11BasicWriterQINtNtCs2wnU2autU56_5alloc3vec3VechEEE0B9_
FN:34,_RNCINvXNtNtCsbwBEBaEzfvW_11git_metrics3cmd3addNtB5_10CommandAddNtB7_8Executor7executeNtNtNtB9_7backend4mock11MockBackendINtNtB7_7prelude13ColoredWriterQINtNtCs2wnU2autU56_5alloc3vec3VechEEE0B9_
FN:34,_RNCINvXNtNtCsbwBEBaEzfvW_11git_metrics3cmd3addNtB5_10CommandAddNtB7_8Executor7executeNtNtNtB9_7backend7command14CommandBackendINtNtB7_7prelude11BasicWriterQINtNtCs2wnU2autU56_5alloc3vec3VechEEE0B9_
FN:34,_RNCINvXNtNtCsbwBEBaEzfvW_11git_metrics3cmd3addNtB5_10CommandAddNtB7_8Executor7executeNtNtNtB9_7backend7command14CommandBackendINtNtB7_7prelude13ColoredWriterQINtNtCs2wnU2autU56_5alloc3vec3VechEEE0B9_
FN:55,_RNvNtNtNtCsbwBEBaEzfvW_11git_metrics3cmd3add5testss_36should_add_metric_with_one_attribute
FN:71,_RNvNtNtNtCsbwBEBaEzfvW_11git_metrics3cmd3add5testss_42should_add_metric_with_multiple_attributes
FN:111,_RNvNtNtNtCsbwBEBaEzfvW_11git_metrics3cmd3add5testss_37should_add_metric_to_different_target
FN:11,_RNCNvXs1_NtNtCsbwBEBaEzfvW_11git_metrics3cmd3addNtB7_10CommandAddNtNtCs5tKP36R4pfF_12clap_builder6derive14FromArgMatches27update_from_arg_matches_mut0Bb_
FN:13,_RNCNvXs1_NtNtCsbwBEBaEzfvW_11git_metrics3cmd3addNtB7_10CommandAddNtNtCs5tKP36R4pfF_12clap_builder6derive14FromArgMatches27update_from_arg_matches_muts_0Bb_
FN:16,_RNCNvXs1_NtNtCsbwBEBaEzfvW_11git_metrics3cmd3addNtB7_10CommandAddNtNtCs5tKP36R4pfF_12clap_builder6derive14FromArgMatches27update_from_arg_matches_muts0_0Bb_
FN:18,_RNCNvXs1_NtNtCsbwBEBaEzfvW_11git_metrics3cmd3addNtB7_10CommandAddNtNtCs5tKP36R4pfF_12clap_builder6derive14FromArgMatches27update_from_arg_matches_muts1_0Bb_
FNDA:0,_RNCNvXs1_NtNtCsbwBEBaEzfvW_11git_metrics3cmd3addNtB7_10CommandAddNtNtCs5tKP36R4pfF_12clap_builder6derive14FromArgMatches20from_arg_matches_mut0Bb_
FNDA:0,_RNCNvXs1_NtNtCsbwBEBaEzfvW_11git_metrics3cmd3addNtB7_10CommandAddNtNtCs5tKP36R4pfF_12clap_builder6derive14FromArgMatches20from_arg_matches_muts_0Bb_
FNDA:34,_RNCNvXs1_NtNtCsbwBEBaEzfvW_11git_metrics3cmd3addNtB7_10CommandAddNtNtCs5tKP36R4pfF_12clap_builder6derive14FromArgMatches20from_arg_matches_muts0_0Bb_
FNDA:0,_RNCNvXs1_NtNtCsbwBEBaEzfvW_11git_metrics3cmd3addNtB7_10CommandAddNtNtCs5tKP36R4pfF_12clap_builder6derive14FromArgMatches20from_arg_matches_muts1_0Bb_
FNDA:28,_RINvXNtNtCsbwBEBaEzfvW_11git_metrics3cmd3addNtB3_10CommandAddNtB5_8Executor7executeNtNtNtB7_7backend4git211Git2BackendINtNtB5_7prelude11BasicWriterQINtNtCs2wnU2autU56_5alloc3vec3VechEEEB7_
FNDA:0,_RINvXNtNtCsbwBEBaEzfvW_11git_metrics3cmd3addNtB3_10CommandAddNtB5_8Executor7executeNtNtNtB7_7backend4git211Git2BackendINtNtB5_7prelude13ColoredWriterQINtNtCs2wnU2autU56_5alloc3vec3VechEEEB7_
FNDA:3,_RINvXNtNtCsbwBEBaEzfvW_11git_metrics3cmd3addNtB3_10CommandAddNtB5_8Executor7executeNtNtNtB7_7backend4mock11MockBackendINtNtB5_7prelude11BasicWriterQINtNtCs2wnU2autU56_5alloc3vec3VechEEEB7_
FNDA:0,_RINvXNtNtCsbwBEBaEzfvW_11git_metrics3cmd3addNtB3_10CommandAddNtB5_8Executor7executeNtNtNtB7_7backend4mock11MockBackendINtNtB5_7prelude13ColoredWriterQINtNtCs2wnU2autU56_5alloc3vec3VechEEEB7_
FNDA:14,_RINvXNtNtCsbwBEBaEzfvW_11git_metrics3cmd3addNtB3_10CommandAddNtB5_8Executor7executeNtNtNtB7_7backend7command14CommandBackendINtNtB5_7prelude11BasicWriterQINtNtCs2wnU2autU56_5alloc3vec3VechEEEB7_
FNDA:0,_RINvXNtNtCsbwBEBaEzfvW_11git_metrics3cmd3addNtB3_10CommandAddNtB5_8Executor7executeNtNtNtB7_7backend7command14CommandBackendINtNtB5_7prelude13ColoredWriterQINtNtCs2wnU2autU56_5alloc3vec3VechEEEB7_
FNDA:23,_RNCINvXNtNtCsbwBEBaEzfvW_11git_metrics3cmd3addNtB5_10CommandAddNtB7_8Executor7executeNtNtNtB9_7backend4git211Git2BackendINtNtB7_7prelude11BasicWriterQINtNtCs2wnU2autU56_5alloc3vec3VechEEE0B9_
FNDA:0,_RNCINvXNtNtCsbwBEBaEzfvW_11git_metrics3cmd3addNtB5_10CommandAddNtB7_8Executor7executeNtNtNtB9_7backend4git211Git2BackendINtNtB7_7prelude13ColoredWriterQINtNtCs2wnU2autU56_5alloc3vec3VechEEE0B9_
FNDA:3,_RNCINvXNtNtCsbwBEBaEzfvW_11git_metrics3cmd3addNtB5_10CommandAddNtB7_8Executor7executeNtNtNtB9_7backend4mock11MockBackendINtNtB7_7prelude11BasicWriterQINtNtCs2wnU2autU56_5alloc3vec3VechEEE0B9_
FNDA:0,_RNCINvXNtNtCsbwBEBaEzfvW_11git_metrics3cmd3addNtB5_10CommandAddNtB7_8Executor7executeNtNtNtB9_7backend4mock11MockBackendINtNtB7_7prelude13ColoredWriterQINtNtCs2wnU2autU56_5alloc3vec3VechEEE0B9_
FNDA:9,_RNCINvXNtNtCsbwBEBaEzfvW_11git_metrics3cmd3addNtB5_10CommandAddNtB7_8Executor7executeNtNtNtB9_7backend7command14CommandBackendINtNtB7_7prelude11BasicWriterQINtNtCs2wnU2autU56_5alloc3vec3VechEEE0B9_
FNDA:0,_RNCINvXNtNtCsbwBEBaEzfvW_11git_metrics3cmd3addNtB5_10CommandAddNtB7_8Executor7executeNtNtNtB9_7backend7command14CommandBackendINtNtB7_7prelude13ColoredWriterQINtNtCs2wnU2autU56_5alloc3vec3VechEEE0B9_
FNDA:1,_RNvNtNtNtCsbwBEBaEzfvW_11git_metrics3cmd3add5testss_36should_add_metric_with_one_attribute
FNDA:1,_RNvNtNtNtCsbwBEBaEzfvW_11git_metrics3cmd3add5testss_42should_add_metric_with_multiple_attributes
FNDA:1,_RNvNtNtNtCsbwBEBaEzfvW_11git_metrics3cmd3add5testss_37should_add_metric_to_different_target
FNDA:0,_RNCNvXs1_NtNtCsbwBEBaEzfvW_11git_metrics3cmd3addNtB7_10CommandAddNtNtCs5tKP36R4pfF_12clap_builder6derive14FromArgMatches27update_from_arg_matches_mut0Bb_
FNDA:0,_RNCNvXs1_NtNtCsbwBEBaEzfvW_11git_metrics3cmd3addNtB7_10CommandAddNtNtCs5tKP36R4pfF_12clap_builder6derive14FromArgMatches27update_from_arg_matches_muts_0Bb_
FNDA:0,_RNCNvXs1_NtNtCsbwBEBaEzfvW_11git_metrics3cmd3addNtB7_10CommandAddNtNtCs5tKP36R4pfF_12clap_builder6derive14FromArgMatches27update_from_arg_matches_muts0_0Bb_
FNDA:0,_RNCNvXs1_NtNtCsbwBEBaEzfvW_11git_metrics3cmd3addNtB7_10CommandAddNtNtCs5tKP36R4pfF_12clap_builder6derive14FromArgMatches27update_from_arg_matches_muts1_0Bb_
FNF:9
FNH:6
DA:11,0
DA:13,0
DA:16,34
DA:18,0
DA:22,45
DA:34,35
DA:55,1
DA:56,1
DA:57,1
DA:58,1
DA:59,1
DA:60,1
DA:61,1
DA:62,1
DA:63,1
DA:64,1
DA:65,1
DA:66,1
DA:67,1
DA:68,1
DA:71,1
DA:72,1
DA:73,1
DA:74,1
DA:75,1
DA:76,1
DA:77,1
DA:78,1
DA:79,1
DA:80,1
DA:81,1
DA:82,1
DA:83,1
DA:84,1
DA:85,1
DA:86,1
DA:87,1
DA:88,1
DA:89,1
DA:90,1
DA:91,1
DA:92,1
DA:94,1
DA:95,1
DA:96,1
DA:97,1
DA:98,1
DA:99,1
DA:100,1
DA:101,1
DA:102,1
DA:103,1
DA:104,1
DA:105,1
DA:106,1
DA:107,1
DA:108,1
DA:111,1
DA:112,1
DA:113,1
DA:114,1
DA:115,1
DA:116,1
DA:117,1
DA:118,1
DA:119,1
DA:120,1
DA:121,1
DA:122,1
DA:123,1
DA:125,1
DA:126,1
DA:127,1
DA:128,1
DA:129,1
DA:130,1
DA:131,1
DA:132,1
DA:133,1
DA:134,1
DA:135,1
DA:136,1
DA:137,1
BRF:0
BRH:0
LF:83
LH:80
end_of_record
SF:/code/git-metrics/src/cmd/check/format.rs
FN:10,_RNvMNtNtNtCsbwBEBaEzfvW_11git_metrics3cmd5check6formatNtNtNtB8_6entity5check6Status9big_label
FN:18,_RNvMNtNtNtCsbwBEBaEzfvW_11git_metrics3cmd5check6formatNtNtNtB8_6entity5check6Status5style
FN:32,_RNvMNtNtNtCsbwBEBaEzfvW_11git_metrics3cmd5check6formatNtNtNtB8_6entity5check6Status11small_label
FN:47,_RNvMs_NtNtNtCsbwBEBaEzfvW_11git_metrics3cmd5check6formatNtB4_10TextStatus3newBa_
FN:53,_RINvXs0_NtNtNtCsbwBEBaEzfvW_11git_metrics3cmd5check6formatNtB6_10TextStatusNtNtBa_7prelude13PrettyDisplay5printINtB1d_11BasicWriterINtNtCs2wnU2autU56_5alloc3vec3VechEEEBc_
FN:53,_RINvXs0_NtNtNtCsbwBEBaEzfvW_11git_metrics3cmd5check6formatNtB6_10TextStatusNtNtBa_7prelude13PrettyDisplay5printINtB1d_11BasicWriterQINtNtCs2wnU2autU56_5alloc3vec3VechEEEBc_
FN:53,_RINvXs0_NtNtNtCsbwBEBaEzfvW_11git_metrics3cmd5check6formatNtB6_10TextStatusNtNtBa_7prelude13PrettyDisplay5printINtB1d_13ColoredWriterQINtNtCs2wnU2autU56_5alloc3vec3VechEEEBc_
FN:68,_RNvMs1_NtNtNtCsbwBEBaEzfvW_11git_metrics3cmd5check6formatNtB5_15SmallTextStatus3newBb_
FN:74,_RINvXs2_NtNtNtCsbwBEBaEzfvW_11git_metrics3cmd5check6formatNtB6_15SmallTextStatusNtNtBa_7prelude13PrettyDisplay5printINtB1i_11BasicWriterINtNtCs2wnU2autU56_5alloc3vec3VechEEEBc_
FN:74,_RINvXs2_NtNtNtCsbwBEBaEzfvW_11git_metrics3cmd5check6formatNtB6_15SmallTextStatusNtNtBa_7prelude13PrettyDisplay5printINtB1i_11BasicWriterQINtNtCs2wnU2autU56_5alloc3vec3VechEEEBc_
FN:74,_RINvXs2_NtNtNtCsbwBEBaEzfvW_11git_metrics3cmd5check6formatNtB6_15SmallTextStatusNtNtBa_7prelude13PrettyDisplay5printINtB1i_13ColoredWriterQINtNtCs2wnU2autU56_5alloc3vec3VechEEEBc_
FN:90,_RNvMs3_NtNtNtCsbwBEBaEzfvW_11git_metrics3cmd5check6formatNtB5_8TextRule3newBb_
FN:96,_RNvXs4_NtNtNtCsbwBEBaEzfvW_11git_metrics3cmd5check6formatNtB5_8TextRuleNtNtCs2ke5FKHNm4X_4core3fmt7Display3fmt
FN:145,_RNvMs5_NtNtNtCsbwBEBaEzfvW_11git_metrics3cmd5check6formatNtB5_14TextComparison3newBb_
FN:151,_RNvXs6_NtNtNtCsbwBEBaEzfvW_11git_metrics3cmd5check6formatNtB5_14TextComparisonNtNtCs2ke5FKHNm4X_4core3fmt7Display3fmt
FN:222,_RINvMs7_NtNtNtCsbwBEBaEzfvW_11git_metrics3cmd5check6formatNtB6_13TextFormatter12format_checkINtNtBa_7prelude11BasicWriterINtNtCs2wnU2autU56_5alloc3vec3VechEEEBc_
FN:222,_RINvMs7_NtNtNtCsbwBEBaEzfvW_11git_metrics3cmd5check6formatNtB6_13TextFormatter12format_checkINtNtBa_7prelude11BasicWriterQINtNtCs2wnU2autU56_5alloc3vec3VechEEEBc_
FN:222,_RINvMs7_NtNtNtCsbwBEBaEzfvW_11git_metrics3cmd5check6formatNtB6_13TextFormatter12format_checkINtNtBa_7prelude13ColoredWriterQINtNtCs2wnU2autU56_5alloc3vec3VechEEEBc_
FN:241,_RINvMs7_NtNtNtCsbwBEBaEzfvW_11git_metrics3cmd5check6formatNtB6_13TextFormatter13format_metricINtNtBa_7prelude11BasicWriterINtNtCs2wnU2autU56_5alloc3vec3VechEEEBc_
FN:241,_RINvMs7_NtNtNtCsbwBEBaEzfvW_11git_metrics3cmd5check6formatNtB6_13TextFormatter13format_metricINtNtBa_7prelude11BasicWriterQINtNtCs2wnU2autU56_5alloc3vec3VechEEEBc_
FN:241,_RINvMs7_NtNtNtCsbwBEBaEzfvW_11git_metrics3cmd5check6formatNtB6_13TextFormatter13format_metricINtNtBa_7prelude13ColoredWriterQINtNtCs2wnU2autU56_5alloc3vec3VechEEEBc_
FN:280,_RINvMs7_NtNtNtCsbwBEBaEzfvW_11git_metrics3cmd5check6formatNtB6_13TextFormatter6formatINtNtBa_7prelude11BasicWriterINtNtCs2wnU2autU56_5alloc3vec3VechEEEBc_
FN:280,_RINvMs7_NtNtNtCsbwBEBaEzfvW_11git_metrics3cmd5check6formatNtB6_13TextFormatter6formatINtNtBa_7prelude11BasicWriterQINtNtCs2wnU2autU56_5alloc3vec3VechEEEBc_
FN:280,_RINvMs7_NtNtNtCsbwBEBaEzfvW_11git_metrics3cmd5check6formatNtB6_13TextFormatter6formatINtNtBa_7prelude13ColoredWriterQINtNtCs2wnU2autU56_5alloc3vec3VechEEEBc_
FN:303,_RNvNtNtNtNtCsbwBEBaEzfvW_11git_metrics3cmd5check6format5tests18complete_checklist
FN:389,_RNvNtNtNtNtCsbwBEBaEzfvW_11git_metrics3cmd5check6format5testss_32should_format_to_text_by_default
FN:403,_RNvNtNtNtNtCsbwBEBaEzfvW_11git_metrics3cmd5check6format5testss_41should_format_to_text_with_success_showed
FNDA:26,_RNvMNtNtNtCsbwBEBaEzfvW_11git_metrics3cmd5check6formatNtNtNtB8_6entity5check6Status9big_label
FNDA:43,_RNvMNtNtNtCsbwBEBaEzfvW_11git_metrics3cmd5check6formatNtNtNtB8_6entity5check6Status5style
FNDA:17,_RNvMNtNtNtCsbwBEBaEzfvW_11git_metrics3cmd5check6formatNtNtNtB8_6entity5check6Status11small_label
FNDA:26,_RNvMs_NtNtNtCsbwBEBaEzfvW_11git_metrics3cmd5check6formatNtB4_10TextStatus3newBa_
FNDA:14,_RINvXs0_NtNtNtCsbwBEBaEzfvW_11git_metrics3cmd5check6formatNtB6_10TextStatusNtNtBa_7prelude13PrettyDisplay5printINtB1d_11BasicWriterINtNtCs2wnU2autU56_5alloc3vec3VechEEEBc_
FNDA:12,_RINvXs0_NtNtNtCsbwBEBaEzfvW_11git_metrics3cmd5check6formatNtB6_10TextStatusNtNtBa_7prelude13PrettyDisplay5printINtB1d_11BasicWriterQINtNtCs2wnU2autU56_5alloc3vec3VechEEEBc_
FNDA:0,_RINvXs0_NtNtNtCsbwBEBaEzfvW_11git_metrics3cmd5check6formatNtB6_10TextStatusNtNtBa_7prelude13PrettyDisplay5printINtB1d_13ColoredWriterQINtNtCs2wnU2autU56_5alloc3vec3VechEEEBc_
FNDA:17,_RNvMs1_NtNtNtCsbwBEBaEzfvW_11git_metrics3cmd5check6formatNtB5_15SmallTextStatus3newBb_
FNDA:11,_RINvXs2_NtNtNtCsbwBEBaEzfvW_11git_metrics3cmd5check6formatNtB6_15SmallTextStatusNtNtBa_7prelude13PrettyDisplay5printINtB1i_11BasicWriterINtNtCs2wnU2autU56_5alloc3vec3VechEEEBc_
FNDA:6,_RINvXs2_NtNtNtCsbwBEBaEzfvW_11git_metrics3cmd5check6formatNtB6_15SmallTextStatusNtNtBa_7prelude13PrettyDisplay5printINtB1i_11BasicWriterQINtNtCs2wnU2autU56_5alloc3vec3VechEEEBc_
FNDA:0,_RINvXs2_NtNtNtCsbwBEBaEzfvW_11git_metrics3cmd5check6formatNtB6_15SmallTextStatusNtNtBa_7prelude13PrettyDisplay5printINtB1i_13ColoredWriterQINtNtCs2wnU2autU56_5alloc3vec3VechEEEBc_
FNDA:17,_RNvMs3_NtNtNtCsbwBEBaEzfvW_11git_metrics3cmd5check6formatNtB5_8TextRule3newBb_
FNDA:17,_RNvXs4_NtNtNtCsbwBEBaEzfvW_11git_metrics3cmd5check6formatNtB5_8TextRuleNtNtCs2ke5FKHNm4X_4core3fmt7Display3fmt
FNDA:26,_RNvMs5_NtNtNtCsbwBEBaEzfvW_11git_metrics3cmd5check6formatNtB5_14TextComparison3newBb_
FNDA:26,_RNvXs6_NtNtNtCsbwBEBaEzfvW_11git_metrics3cmd5check6formatNtB5_14TextComparisonNtNtCs2ke5FKHNm4X_4core3fmt7Display3fmt
FNDA:16,_RINvMs7_NtNtNtCsbwBEBaEzfvW_11git_metrics3cmd5check6formatNtB6_13TextFormatter12format_checkINtNtBa_7prelude11BasicWriterINtNtCs2wnU2autU56_5alloc3vec3VechEEEBc_
FNDA:26,_RINvMs7_NtNtNtCsbwBEBaEzfvW_11git_metrics3cmd5check6formatNtB6_13TextFormatter12format_checkINtNtBa_7prelude11BasicWriterQINtNtCs2wnU2autU56_5alloc3vec3VechEEEBc_
FNDA:0,_RINvMs7_NtNtNtCsbwBEBaEzfvW_11git_metrics3cmd5check6formatNtB6_13TextFormatter12format_checkINtNtBa_7prelude13ColoredWriterQINtNtCs2wnU2autU56_5alloc3vec3VechEEEBc_
FNDA:14,_RINvMs7_NtNtNtCsbwBEBaEzfvW_11git_metrics3cmd5check6formatNtB6_13TextFormatter13format_metricINtNtBa_7prelude11BasicWriterINtNtCs2wnU2autU56_5alloc3vec3VechEEEBc_
FNDA:12,_RINvMs7_NtNtNtCsbwBEBaEzfvW_11git_metrics3cmd5check6formatNtB6_13TextFormatter13format_metricINtNtBa_7prelude11BasicWriterQINtNtCs2wnU2autU56_5alloc3vec3VechEEEBc_
FNDA:0,_RINvMs7_NtNtNtCsbwBEBaEzfvW_11git_metrics3cmd5check6formatNtB6_13TextFormatter13format_metricINtNtBa_7prelude13ColoredWriterQINtNtCs2wnU2autU56_5alloc3vec3VechEEEBc_
FNDA:2,_RINvMs7_NtNtNtCsbwBEBaEzfvW_11git_metrics3cmd5check6formatNtB6_13TextFormatter6formatINtNtBa_7prelude11BasicWriterINtNtCs2wnU2autU56_5alloc3vec3VechEEEBc_
FNDA:4,_RINvMs7_NtNtNtCsbwBEBaEzfvW_11git_metrics3cmd5check6formatNtB6_13TextFormatter6formatINtNtBa_7prelude11BasicWriterQINtNtCs2wnU2autU56_5alloc3vec3VechEEEBc_
FNDA:0,_RINvMs7_NtNtNtCsbwBEBaEzfvW_11git_metrics3cmd5check6formatNtB6_13TextFormatter6formatINtNtBa_7prelude13ColoredWriterQINtNtCs2wnU2autU56_5alloc3vec3VechEEEBc_
FNDA:2,_RNvNtNtNtNtCsbwBEBaEzfvW_11git_metrics3cmd5check6format5tests18complete_checklist
FNDA:1,_RNvNtNtNtNtCsbwBEBaEzfvW_11git_metrics3cmd5check6format5testss_32should_format_to_text_by_default
FNDA:1,_RNvNtNtNtNtCsbwBEBaEzfvW_11git_metrics3cmd5check6format5testss_41should_format_to_text_with_success_showed
FNF:17
FNH:17
DA:10,26
DA:11,26
DA:12,8
DA:13,4
DA:14,14
DA:16,26
DA:18,43
DA:19,43
DA:20,18
DA:21,18
DA:22,18
DA:23,5
DA:24,5
DA:25,5
DA:26,20
DA:27,20
DA:28,20
DA:30,43
DA:32,17
DA:33,17
DA:34,10
DA:35,1
DA:36,6
DA:38,17
DA:47,26
DA:48,26
DA:49,26
DA:53,26
DA:54,26
DA:55,26
DA:56,26
DA:57,26
DA:58,26
DA:59,26
DA:68,17
DA:69,17
DA:70,17
DA:74,17
DA:75,17
DA:76,17
DA:77,17
DA:78,17
DA:79,17
DA:80,17
DA:90,17
DA:91,17
DA:92,17
DA:96,17
DA:97,11
DA:98,6
DA:99,6
DA:101,0
DA:102,0
DA:103,0
DA:104,0
DA:105,0
DA:106,8
DA:107,8
DA:108,8
DA:109,8
DA:110,8
DA:111,8
DA:113,3
DA:114,3
DA:115,3
DA:116,3
DA:117,3
DA:118,3
DA:120,0
DA:121,0
DA:122,0
DA:123,0
DA:124,0
DA:125,0
DA:127,0
DA:128,0
DA:129,0
DA:130,0
DA:131,0
DA:132,0
DA:135,17
DA:145,26
DA:146,26
DA:147,26
DA:151,26
DA:152,26
DA:153,16
DA:154,0
DA:155,0
DA:157,0
DA:158,0
DA:161,26
DA:162,26
DA:163,26
DA:164,26
DA:165,26
DA:166,26
DA:167,26
DA:168,26
DA:169,10
DA:170,10
DA:171,10
DA:172,10
DA:173,10
DA:174,10
DA:177,16
DA:178,16
DA:179,16
DA:180,16
DA:181,16
DA:182,16
DA:183,16
DA:184,16
DA:185,16
DA:186,16
DA:187,16
DA:188,16
DA:189,16
DA:190,16
DA:191,16
DA:192,16
DA:195,0
DA:196,0
DA:197,0
DA:198,0
DA:199,0
DA:200,0
DA:201,0
DA:202,0
DA:203,0
DA:204,0
DA:205,0
DA:206,0
DA:207,0
DA:208,0
DA:209,0
DA:212,26
DA:222,42
DA:223,42
DA:224,42
DA:225,42
DA:226,42
DA:227,42
DA:228,31
DA:229,25
DA:230,0
DA:232,17
DA:233,17
DA:234,17
DA:235,17
DA:236,17
DA:239,42
DA:241,26
DA:242,26
DA:243,26
DA:244,26
DA:245,26
DA:246,26
DA:247,26
DA:248,26
DA:249,26
DA:250,26
DA:251,26
DA:252,26
DA:253,26
DA:254,26
DA:255,26
DA:256,36
DA:257,36
DA:259,26
DA:260,30
DA:261,30
DA:262,26
DA:263,25
DA:265,6
DA:266,6
DA:267,6
DA:268,6
DA:269,6
DA:270,6
DA:271,6
DA:272,6
DA:273,6
DA:275,24
DA:277,26
DA:278,26
DA:280,6
DA:281,6
DA:282,6
DA:283,6
DA:284,6
DA:285,6
DA:286,26
DA:287,26
DA:288,26
DA:290,6
DA:291,6
DA:303,2
DA:304,2
DA:305,2
DA:306,2
DA:307,2
DA:308,2
DA:309,2
DA:310,2
DA:311,2
DA:312,2
DA:313,2
DA:314,2
DA:315,2
DA:316,2
DA:317,2
DA:318,2
DA:319,2
DA:320,2
DA:321,2
DA:322,2
DA:323,2
DA:324,2
DA:325,2
DA:326,2
DA:327,2
DA:328,2
DA:329,2
DA:330,2
DA:331,2
DA:332,2
DA:333,2
DA:334,2
DA:335,2
DA:336,2
DA:337,2
DA:338,2
DA:339,2
DA:340,2
DA:341,2
DA:342,2
DA:343,2
DA:344,2
DA:345,2
DA:346,2
DA:347,2
DA:348,2
DA:349,2
DA:350,2
DA:351,2
DA:352,2
DA:353,2
DA:354,2
DA:355,2
DA:356,2
DA:357,2
DA:358,2
DA:359,2
DA:360,2
DA:361,2
DA:362,2
DA:363,2
DA:364,2
DA:365,2
DA:366,2
DA:367,2
DA:368,2
DA:369,2
DA:370,2
DA:371,2
DA:372,2
DA:373,2
DA:374,2
DA:375,2
DA:376,2
DA:377,2
DA:378,2
DA:379,2
DA:380,2
DA:381,2
DA:382,2
DA:383,2
DA:384,2
DA:385,2
DA:386,2
DA:389,1
DA:390,1
DA:391,1
DA:392,1
DA:393,1
DA:394,1
DA:395,1
DA:396,1
DA:397,1
DA:398,1
DA:399,1
DA:400,1
DA:403,1
DA:404,1
DA:405,1
DA:406,1
DA:407,1
DA:408,1
DA:409,1
DA:410,1
DA:411,1
DA:412,1
DA:413,1
DA:414,1
DA:415,1
DA:416,1
DA:417,1
DA:418,1
DA:419,1
DA:420,1
BRF:0
BRH:0
LF:311
LH:274
end_of_record
SF:/code/git-metrics/src/cmd/check/mod.rs
FN:13,_RNCNvXs1_NtNtCsbwBEBaEzfvW_11git_metrics3cmd5checkNtB7_12CommandCheckNtNtCs5tKP36R4pfF_12clap_builder6derive14FromArgMatches20from_arg_matches_mut0Bb_
FN:16,_RNCNvXs1_NtNtCsbwBEBaEzfvW_11git_metrics3cmd5checkNtB7_12CommandCheckNtNtCs5tKP36R4pfF_12clap_builder6derive14FromArgMatches20from_arg_matches_muts_0Bb_
FN:19,_RNCNvXs1_NtNtCsbwBEBaEzfvW_11git_metrics3cmd5checkNtB7_12CommandCheckNtNtCs5tKP36R4pfF_12clap_builder6derive14FromArgMatches20from_arg_matches_muts0_0Bb_
FN:24,_RNCNvXs1_NtNtCsbwBEBaEzfvW_11git_metrics3cmd5checkNtB7_12CommandCheckNtNtCs5tKP36R4pfF_12clap_builder6derive14FromArgMatches20from_arg_matches_muts1_0Bb_
FN:28,_RINvXNtNtCsbwBEBaEzfvW_11git_metrics3cmd5checkNtB3_12CommandCheckNtB5_8Executor7executeNtNtNtB7_7backend4git211Git2BackendINtNtB5_7prelude11BasicWriterQINtNtCs2wnU2autU56_5alloc3vec3VechEEEB7_
FN:28,_RINvXNtNtCsbwBEBaEzfvW_11git_metrics3cmd5checkNtB3_12CommandCheckNtB5_8Executor7executeNtNtNtB7_7backend4git211Git2BackendINtNtB5_7prelude13ColoredWriterQINtNtCs2wnU2autU56_5alloc3vec3VechEEEB7_
FN:28,_RINvXNtNtCsbwBEBaEzfvW_11git_metrics3cmd5checkNtB3_12CommandCheckNtB5_8Executor7executeNtNtNtB7_7backend4mock11MockBackendINtNtB5_7prelude11BasicWriterQINtNtCs2wnU2autU56_5alloc3vec3VechEEEB7_
FN:28,_RINvXNtNtCsbwBEBaEzfvW_11git_metrics3cmd5checkNtB3_12CommandCheckNtB5_8Executor7executeNtNtNtB7_7backend4mock11MockBackendINtNtB5_7prelude13ColoredWriterQINtNtCs2wnU2autU56_5alloc3vec3VechEEEB7_
FN:28,_RINvXNtNtCsbwBEBaEzfvW_11git_metrics3cmd5checkNtB3_12CommandCheckNtB5_8Executor7executeNtNtNtB7_7backend7command14CommandBackendINtNtB5_7prelude11BasicWriterQINtNtCs2wnU2autU56_5alloc3vec3VechEEEB7_
FN:28,_RINvXNtNtCsbwBEBaEzfvW_11git_metrics3cmd5checkNtB3_12CommandCheckNtB5_8Executor7executeNtNtNtB7_7backend7command14CommandBackendINtNtB5_7prelude13ColoredWriterQINtNtCs2wnU2autU56_5alloc3vec3VechEEEB7_
FN:13,_RNCNvXs1_NtNtCsbwBEBaEzfvW_11git_metrics3cmd5checkNtB7_12CommandCheckNtNtCs5tKP36R4pfF_12clap_builder6derive14FromArgMatches27update_from_arg_matches_mut0Bb_
FN:16,_RNCNvXs1_NtNtCsbwBEBaEzfvW_11git_metrics3cmd5checkNtB7_12CommandCheckNtNtCs5tKP36R4pfF_12clap_builder6derive14FromArgMatches27update_from_arg_matches_muts_0Bb_
FN:19,_RNCNvXs1_NtNtCsbwBEBaEzfvW_11git_metrics3cmd5checkNtB7_12CommandCheckNtNtCs5tKP36R4pfF_12clap_builder6derive14FromArgMatches27update_from_arg_matches_muts0_0Bb_
FN:24,_RNCNvXs1_NtNtCsbwBEBaEzfvW_11git_metrics3cmd5checkNtB7_12CommandCheckNtNtCs5tKP36R4pfF_12clap_builder6derive14FromArgMatches27update_from_arg_matches_muts1_0Bb_
FNDA:0,_RNCNvXs1_NtNtCsbwBEBaEzfvW_11git_metrics3cmd5checkNtB7_12CommandCheckNtNtCs5tKP36R4pfF_12clap_builder6derive14FromArgMatches20from_arg_matches_mut0Bb_
FNDA:0,_RNCNvXs1_NtNtCsbwBEBaEzfvW_11git_metrics3cmd5checkNtB7_12CommandCheckNtNtCs5tKP36R4pfF_12clap_builder6derive14FromArgMatches20from_arg_matches_muts_0Bb_
FNDA:0,_RNCNvXs1_NtNtCsbwBEBaEzfvW_11git_metrics3cmd5checkNtB7_12CommandCheckNtNtCs5tKP36R4pfF_12clap_builder6derive14FromArgMatches20from_arg_matches_muts0_0Bb_
FNDA:0,_RNCNvXs1_NtNtCsbwBEBaEzfvW_11git_metrics3cmd5checkNtB7_12CommandCheckNtNtCs5tKP36R4pfF_12clap_builder6derive14FromArgMatches20from_arg_matches_muts1_0Bb_
FNDA:2,_RINvXNtNtCsbwBEBaEzfvW_11git_metrics3cmd5checkNtB3_12CommandCheckNtB5_8Executor7executeNtNtNtB7_7backend4git211Git2BackendINtNtB5_7prelude11BasicWriterQINtNtCs2wnU2autU56_5alloc3vec3VechEEEB7_
FNDA:0,_RINvXNtNtCsbwBEBaEzfvW_11git_metrics3cmd5checkNtB3_12CommandCheckNtB5_8Executor7executeNtNtNtB7_7backend4git211Git2BackendINtNtB5_7prelude13ColoredWriterQINtNtCs2wnU2autU56_5alloc3vec3VechEEEB7_
FNDA:0,_RINvXNtNtCsbwBEBaEzfvW_11git_metrics3cmd5checkNtB3_12CommandCheckNtB5_8Executor7executeNtNtNtB7_7backend4mock11MockBackendINtNtB5_7prelude11BasicWriterQINtNtCs2wnU2autU56_5alloc3vec3VechEEEB7_
FNDA:0,_RINvXNtNtCsbwBEBaEzfvW_11git_metrics3cmd5checkNtB3_12CommandCheckNtB5_8Executor7executeNtNtNtB7_7backend4mock11MockBackendINtNtB5_7prelude13ColoredWriterQINtNtCs2wnU2autU56_5alloc3vec3VechEEEB7_
FNDA:2,_RINvXNtNtCsbwBEBaEzfvW_11git_metrics3cmd5checkNtB3_12CommandCheckNtB5_8Executor7executeNtNtNtB7_7backend7command14CommandBackendINtNtB5_7prelude11BasicWriterQINtNtCs2wnU2autU56_5alloc3vec3VechEEEB7_
FNDA:0,_RINvXNtNtCsbwBEBaEzfvW_11git_metrics3cmd5checkNtB3_12CommandCheckNtB5_8Executor7executeNtNtNtB7_7backend7command14CommandBackendINtNtB5_7prelude13ColoredWriterQINtNtCs2wnU2autU56_5alloc3vec3VechEEEB7_
FNDA:0,_RNCNvXs1_NtNtCsbwBEBaEzfvW_11git_metrics3cmd5checkNtB7_12CommandCheckNtNtCs5tKP36R4pfF_12clap_builder6derive14FromArgMatches27update_from_arg_matches_mut0Bb_
FNDA:0,_RNCNvXs1_NtNtCsbwBEBaEzfvW_11git_metrics3cmd5checkNtB7_12CommandCheckNtNtCs5tKP36R4pfF_12clap_builder6derive14FromArgMatches27update_from_arg_matches_muts_0Bb_
FNDA:0,_RNCNvXs1_NtNtCsbwBEBaEzfvW_11git_metrics3cmd5checkNtB7_12CommandCheckNtNtCs5tKP36R4pfF_12clap_builder6derive14FromArgMatches27update_from_arg_matches_muts0_0Bb_
FNDA:0,_RNCNvXs1_NtNtCsbwBEBaEzfvW_11git_metrics3cmd5checkNtB7_12CommandCheckNtNtCs5tKP36R4pfF_12clap_builder6derive14FromArgMatches27update_from_arg_matches_muts1_0Bb_
FNF:5
FNH:1
DA:13,0
DA:16,0
DA:19,0
DA:24,0
DA:28,4
BRF:0
BRH:0
LF:5
LH:1
end_of_record
SF:/code/git-metrics/src/cmd/diff/format.rs
FN:13,_RINvMNtNtNtCsbwBEBaEzfvW_11git_metrics3cmd4diff6formatNtB3_13TextFormatter12format_entryINtNtB7_7prelude11BasicWriterINtNtCs2wnU2autU56_5alloc3vec3VechEEEB9_
FN:13,_RINvMNtNtNtCsbwBEBaEzfvW_11git_metrics3cmd4diff6formatNtB3_13TextFormatter12format_entryINtNtB7_7prelude11BasicWriterQINtNtCs2wnU2autU56_5alloc3vec3VechEEEB9_
FN:13,_RINvMNtNtNtCsbwBEBaEzfvW_11git_metrics3cmd4diff6formatNtB3_13TextFormatter12format_entryINtNtB7_7prelude13ColoredWriterQINtNtCs2wnU2autU56_5alloc3vec3VechEEEB9_
FN:61,_RINvMNtNtNtCsbwBEBaEzfvW_11git_metrics3cmd4diff6formatNtB3_13TextFormatter6formatINtNtB7_7prelude11BasicWriterINtNtCs2wnU2autU56_5alloc3vec3VechEEEB9_
FN:61,_RINvMNtNtNtCsbwBEBaEzfvW_11git_metrics3cmd4diff6formatNtB3_13TextFormatter6formatINtNtB7_7prelude11BasicWriterQINtNtCs2wnU2autU56_5alloc3vec3VechEEEB9_
FN:61,_RINvMNtNtNtCsbwBEBaEzfvW_11git_metrics3cmd4diff6formatNtB3_13TextFormatter6formatINtNtB7_7prelude13ColoredWriterQINtNtCs2wnU2autU56_5alloc3vec3VechEEEB9_
FN:83,_RNvNtNtNtNtCsbwBEBaEzfvW_11git_metrics3cmd4diff6format5testss_18should_format_text
FNDA:3,_RINvMNtNtNtCsbwBEBaEzfvW_11git_metrics3cmd4diff6formatNtB3_13TextFormatter12format_entryINtNtB7_7prelude11BasicWriterINtNtCs2wnU2autU56_5alloc3vec3VechEEEB9_
FNDA:6,_RINvMNtNtNtCsbwBEBaEzfvW_11git_metrics3cmd4diff6formatNtB3_13TextFormatter12format_entryINtNtB7_7prelude11BasicWriterQINtNtCs2wnU2autU56_5alloc3vec3VechEEEB9_
FNDA:18,_RINvMNtNtNtCsbwBEBaEzfvW_11git_metrics3cmd4diff6formatNtB3_13TextFormatter12format_entryINtNtB7_7prelude13ColoredWriterQINtNtCs2wnU2autU56_5alloc3vec3VechEEEB9_
FNDA:1,_RINvMNtNtNtCsbwBEBaEzfvW_11git_metrics3cmd4diff6formatNtB3_13TextFormatter6formatINtNtB7_7prelude11BasicWriterINtNtCs2wnU2autU56_5alloc3vec3VechEEEB9_
FNDA:2,_RINvMNtNtNtCsbwBEBaEzfvW_11git_metrics3cmd4diff6formatNtB3_13TextFormatter6formatINtNtB7_7prelude11BasicWriterQINtNtCs2wnU2autU56_5alloc3vec3VechEEEB9_
FNDA:6,_RINvMNtNtNtCsbwBEBaEzfvW_11git_metrics3cmd4diff6formatNtB3_13TextFormatter6formatINtNtB7_7prelude13ColoredWriterQINtNtCs2wnU2autU56_5alloc3vec3VechEEEB9_
FNDA:1,_RNvNtNtNtNtCsbwBEBaEzfvW_11git_metrics3cmd4diff6format5testss_18should_format_text
FNF:3
FNH:3
DA:13,27
DA:14,27
DA:15,27
DA:16,27
DA:17,27
DA:18,27
DA:19,1
DA:20,1
DA:21,1
DA:22,1
DA:23,1
DA:25,1
DA:26,1
DA:27,1
DA:28,1
DA:31,25
DA:32,25
DA:33,25
DA:34,25
DA:35,0
DA:36,0
DA:37,0
DA:40,25
DA:41,25
DA:42,25
DA:43,25
DA:44,25
DA:45,25
DA:46,25
DA:47,25
DA:48,25
DA:49,25
DA:50,25
DA:51,25
DA:52,25
DA:53,25
DA:54,0
DA:55,25
DA:57,0
DA:59,27
DA:61,9
DA:62,9
DA:63,9
DA:64,9
DA:65,9
DA:66,9
DA:67,27
DA:68,27
DA:69,27
DA:71,9
DA:72,9
DA:83,1
DA:84,1
DA:85,1
DA:86,1
DA:87,1
DA:88,1
DA:89,1
DA:90,1
DA:91,1
DA:92,1
DA:93,1
DA:94,1
DA:95,1
DA:96,1
DA:97,1
DA:98,1
DA:99,1
DA:100,1
DA:101,1
DA:102,1
DA:103,1
DA:104,1
DA:105,1
DA:106,1
DA:107,1
DA:108,1
BRF:0
BRH:0
LF:77
LH:72
end_of_record
SF:/code/git-metrics/src/cmd/diff/mod.rs
FN:13,_RNCNvXs1_NtNtCsbwBEBaEzfvW_11git_metrics3cmd4diffNtB7_11CommandDiffNtNtCs5tKP36R4pfF_12clap_builder6derive14FromArgMatches20from_arg_matches_mut0Bb_
FN:17,_RNCNvXs1_NtNtCsbwBEBaEzfvW_11git_metrics3cmd4diffNtB7_11CommandDiffNtNtCs5tKP36R4pfF_12clap_builder6derive14FromArgMatches20from_arg_matches_muts_0Bb_
FN:23,_RNCNvXs1_NtNtCsbwBEBaEzfvW_11git_metrics3cmd4diffNtB7_11CommandDiffNtNtCs5tKP36R4pfF_12clap_builder6derive14FromArgMatches20from_arg_matches_muts0_0Bb_
FN:27,_RINvXNtNtCsbwBEBaEzfvW_11git_metrics3cmd4diffNtB3_11CommandDiffNtB5_8Executor7executeNtNtNtB7_7backend4git211Git2BackendINtNtB5_7prelude11BasicWriterQINtNtCs2wnU2autU56_5alloc3vec3VechEEEB7_
FN:27,_RINvXNtNtCsbwBEBaEzfvW_11git_metrics3cmd4diffNtB3_11CommandDiffNtB5_8Executor7executeNtNtNtB7_7backend4git211Git2BackendINtNtB5_7prelude13ColoredWriterQINtNtCs2wnU2autU56_5alloc3vec3VechEEEB7_
FN:27,_RINvXNtNtCsbwBEBaEzfvW_11git_metrics3cmd4diffNtB3_11CommandDiffNtB5_8Executor7executeNtNtNtB7_7backend4mock11MockBackendINtNtB5_7prelude11BasicWriterQINtNtCs2wnU2autU56_5alloc3vec3VechEEEB7_
FN:27,_RINvXNtNtCsbwBEBaEzfvW_11git_metrics3cmd4diffNtB3_11CommandDiffNtB5_8Executor7executeNtNtNtB7_7backend4mock11MockBackendINtNtB5_7prelude13ColoredWriterQINtNtCs2wnU2autU56_5alloc3vec3VechEEEB7_
FN:27,_RINvXNtNtCsbwBEBaEzfvW_11git_metrics3cmd4diffNtB3_11CommandDiffNtB5_8Executor7executeNtNtNtB7_7backend7command14CommandBackendINtNtB5_7prelude11BasicWriterQINtNtCs2wnU2autU56_5alloc3vec3VechEEEB7_
FN:27,_RINvXNtNtCsbwBEBaEzfvW_11git_metrics3cmd4diffNtB3_11CommandDiffNtB5_8Executor7executeNtNtNtB7_7backend7command14CommandBackendINtNtB5_7prelude13ColoredWriterQINtNtCs2wnU2autU56_5alloc3vec3VechEEEB7_
FN:62,_RNvNtNtNtCsbwBEBaEzfvW_11git_metrics3cmd4diff5testss_18should_parse_range
FN:13,_RNCNvXs1_NtNtCsbwBEBaEzfvW_11git_metrics3cmd4diffNtB7_11CommandDiffNtNtCs5tKP36R4pfF_12clap_builder6derive14FromArgMatches27update_from_arg_matches_mut0Bb_
FN:17,_RNCNvXs1_NtNtCsbwBEBaEzfvW_11git_metrics3cmd4diffNtB7_11CommandDiffNtNtCs5tKP36R4pfF_12clap_builder6derive14FromArgMatches27update_from_arg_matches_muts_0Bb_
FN:23,_RNCNvXs1_NtNtCsbwBEBaEzfvW_11git_metrics3cmd4diffNtB7_11CommandDiffNtNtCs5tKP36R4pfF_12clap_builder6derive14FromArgMatches27update_from_arg_matches_muts0_0Bb_
FNDA:0,_RNCNvXs1_NtNtCsbwBEBaEzfvW_11git_metrics3cmd4diffNtB7_11CommandDiffNtNtCs5tKP36R4pfF_12clap_builder6derive14FromArgMatches20from_arg_matches_mut0Bb_
FNDA:0,_RNCNvXs1_NtNtCsbwBEBaEzfvW_11git_metrics3cmd4diffNtB7_11CommandDiffNtNtCs5tKP36R4pfF_12clap_builder6derive14FromArgMatches20from_arg_matches_muts_0Bb_
FNDA:0,_RNCNvXs1_NtNtCsbwBEBaEzfvW_11git_metrics3cmd4diffNtB7_11CommandDiffNtNtCs5tKP36R4pfF_12clap_builder6derive14FromArgMatches20from_arg_matches_muts0_0Bb_
FNDA:2,_RINvXNtNtCsbwBEBaEzfvW_11git_metrics3cmd4diffNtB3_11CommandDiffNtB5_8Executor7executeNtNtNtB7_7backend4git211Git2BackendINtNtB5_7prelude11BasicWriterQINtNtCs2wnU2autU56_5alloc3vec3VechEEEB7_
FNDA:3,_RINvXNtNtCsbwBEBaEzfvW_11git_metrics3cmd4diffNtB3_11CommandDiffNtB5_8Executor7executeNtNtNtB7_7backend4git211Git2BackendINtNtB5_7prelude13ColoredWriterQINtNtCs2wnU2autU56_5alloc3vec3VechEEEB7_
FNDA:0,_RINvXNtNtCsbwBEBaEzfvW_11git_metrics3cmd4diffNtB3_11CommandDiffNtB5_8Executor7executeNtNtNtB7_7backend4mock11MockBackendINtNtB5_7prelude11BasicWriterQINtNtCs2wnU2autU56_5alloc3vec3VechEEEB7_
FNDA:0,_RINvXNtNtCsbwBEBaEzfvW_11git_metrics3cmd4diffNtB3_11CommandDiffNtB5_8Executor7executeNtNtNtB7_7backend4mock11MockBackendINtNtB5_7prelude13ColoredWriterQINtNtCs2wnU2autU56_5alloc3vec3VechEEEB7_
FNDA:0,_RINvXNtNtCsbwBEBaEzfvW_11git_metrics3cmd4diffNtB3_11CommandDiffNtB5_8Executor7executeNtNtNtB7_7backend7command14CommandBackendINtNtB5_7prelude11BasicWriterQINtNtCs2wnU2autU56_5alloc3vec3VechEEEB7_
FNDA:3,_RINvXNtNtCsbwBEBaEzfvW_11git_metrics3cmd4diffNtB3_11CommandDiffNtB5_8Executor7executeNtNtNtB7_7backend7command14CommandBackendINtNtB5_7prelude13ColoredWriterQINtNtCs2wnU2autU56_5alloc3vec3VechEEEB7_
FNDA:1,_RNvNtNtNtCsbwBEBaEzfvW_11git_metrics3cmd4diff5testss_18should_parse_range
FNDA:0,_RNCNvXs1_NtNtCsbwBEBaEzfvW_11git_metrics3cmd4diffNtB7_11CommandDiffNtNtCs5tKP36R4pfF_12clap_builder6derive14FromArgMatches27update_from_arg_matches_mut0Bb_
FNDA:0,_RNCNvXs1_NtNtCsbwBEBaEzfvW_11git_metrics3cmd4diffNtB7_11CommandDiffNtNtCs5tKP36R4pfF_12clap_builder6derive14FromArgMatches27update_from_arg_matches_muts_0Bb_
FNDA:0,_RNCNvXs1_NtNtCsbwBEBaEzfvW_11git_metrics3cmd4diffNtB7_11CommandDiffNtNtCs5tKP36R4pfF_12clap_builder6derive14FromArgMatches27update_from_arg_matches_muts0_0Bb_
FNF:5
FNH:2
DA:13,0
DA:17,0
DA:23,0
DA:27,8
DA:62,1
DA:63,1
DA:64,1
DA:65,1
BRF:0
BRH:0
LF:8
LH:5
end_of_record
SF:/code/git-metrics/src/cmd/format/text.rs
FN:16,_RNvMNtNtNtCsbwBEBaEzfvW_11git_metrics3cmd6format4textNtB2_11TextPercent3newB8_
FN:21,_RNvMNtNtNtCsbwBEBaEzfvW_11git_metrics3cmd6format4textNtB2_11TextPercent9with_signB8_
FN:28,_RNvXs_NtNtNtCsbwBEBaEzfvW_11git_metrics3cmd6format4textNtB4_11TextPercentNtNtCs2ke5FKHNm4X_4core3fmt7Display3fmt
FN:43,_RNvMs0_NtNtNtCsbwBEBaEzfvW_11git_metrics3cmd6format4textNtB5_14TextMetricTags3newBb_
FN:49,_RNvXs1_NtNtNtCsbwBEBaEzfvW_11git_metrics3cmd6format4textNtB5_14TextMetricTagsNtNtCs2ke5FKHNm4X_4core3fmt7Display3fmt
FN:70,_RNvMs2_NtNtNtCsbwBEBaEzfvW_11git_metrics3cmd6format4textNtB5_16TextMetricHeader3newBb_
FN:76,_RINvXs3_NtNtNtCsbwBEBaEzfvW_11git_metrics3cmd6format4textNtB6_16TextMetricHeaderNtNtBa_7prelude13PrettyDisplay5printINtB1i_11BasicWriterINtNtCs2wnU2autU56_5alloc3vec3VechEEEBc_
FN:76,_RINvXs3_NtNtNtCsbwBEBaEzfvW_11git_metrics3cmd6format4textNtB6_16TextMetricHeaderNtNtBa_7prelude13PrettyDisplay5printINtB1i_11BasicWriterQINtNtCs2wnU2autU56_5alloc3vec3VechEEEBc_
FN:76,_RINvXs3_NtNtNtCsbwBEBaEzfvW_11git_metrics3cmd6format4textNtB6_16TextMetricHeaderNtNtBa_7prelude13PrettyDisplay5printINtB1i_13ColoredWriterQINtNtCs2wnU2autU56_5alloc3vec3VechEEEBc_
FN:92,_RNvMs4_NtNtNtCsbwBEBaEzfvW_11git_metrics3cmd6format4textNtB5_10TextMetric3newBb_
FN:98,_RINvXs5_NtNtNtCsbwBEBaEzfvW_11git_metrics3cmd6format4textNtB6_10TextMetricNtNtBa_7prelude13PrettyDisplay5printINtB1c_11BasicWriterINtNtCs2wnU2autU56_5alloc3vec3VechEEEBc_
FN:98,_RINvXs5_NtNtNtCsbwBEBaEzfvW_11git_metrics3cmd6format4textNtB6_10TextMetricNtNtBa_7prelude13PrettyDisplay5printINtB1c_11BasicWriterQINtNtCs2wnU2autU56_5alloc3vec3VechEEEBc_
FN:98,_RINvXs5_NtNtNtCsbwBEBaEzfvW_11git_metrics3cmd6format4textNtB6_10TextMetricNtNtBa_7prelude13PrettyDisplay5printINtB1c_13ColoredWriterQINtNtCs2wnU2autU56_5alloc3vec3VechEEEBc_
FN:111,_RNvNtNtNtNtCsbwBEBaEzfvW_11git_metrics3cmd6format4text5testss_37should_display_metric_with_single_tag
FN:123,_RNvNtNtNtNtCsbwBEBaEzfvW_11git_metrics3cmd6format4text5testss_40should_display_metric_with_multiple_tags
FN:137,_RNvNtNtNtNtCsbwBEBaEzfvW_11git_metrics3cmd6format4text5testss_37should_display_metric_with_empty_tags
FNDA:49,_RNvMNtNtNtCsbwBEBaEzfvW_11git_metrics3cmd6format4textNtB2_11TextPercent3newB8_
FNDA:41,_RNvMNtNtNtCsbwBEBaEzfvW_11git_metrics3cmd6format4textNtB2_11TextPercent9with_signB8_
FNDA:49,_RNvXs_NtNtNtCsbwBEBaEzfvW_11git_metrics3cmd6format4textNtB4_11TextPercentNtNtCs2ke5FKHNm4X_4core3fmt7Display3fmt
FNDA:107,_RNvMs0_NtNtNtCsbwBEBaEzfvW_11git_metrics3cmd6format4textNtB5_14TextMetricTags3newBb_
FNDA:107,_RNvXs1_NtNtNtCsbwBEBaEzfvW_11git_metrics3cmd6format4textNtB5_14TextMetricTagsNtNtCs2ke5FKHNm4X_4core3fmt7Display3fmt
FNDA:101,_RNvMs2_NtNtNtCsbwBEBaEzfvW_11git_metrics3cmd6format4textNtB5_16TextMetricHeader3newBb_
FNDA:21,_RINvXs3_NtNtNtCsbwBEBaEzfvW_11git_metrics3cmd6format4textNtB6_16TextMetricHeaderNtNtBa_7prelude13PrettyDisplay5printINtB1i_11BasicWriterINtNtCs2wnU2autU56_5alloc3vec3VechEEEBc_
FNDA:44,_RINvXs3_NtNtNtCsbwBEBaEzfvW_11git_metrics3cmd6format4textNtB6_16TextMetricHeaderNtNtBa_7prelude13PrettyDisplay5printINtB1i_11BasicWriterQINtNtCs2wnU2autU56_5alloc3vec3VechEEEBc_
FNDA:36,_RINvXs3_NtNtNtCsbwBEBaEzfvW_11git_metrics3cmd6format4textNtB6_16TextMetricHeaderNtNtBa_7prelude13PrettyDisplay5printINtB1i_13ColoredWriterQINtNtCs2wnU2autU56_5alloc3vec3VechEEEBc_
FNDA:23,_RNvMs4_NtNtNtCsbwBEBaEzfvW_11git_metrics3cmd6format4textNtB5_10TextMetric3newBb_
FNDA:3,_RINvXs5_NtNtNtCsbwBEBaEzfvW_11git_metrics3cmd6format4textNtB6_10TextMetricNtNtBa_7prelude13PrettyDisplay5printINtB1c_11BasicWriterINtNtCs2wnU2autU56_5alloc3vec3VechEEEBc_
FNDA:20,_RINvXs5_NtNtNtCsbwBEBaEzfvW_11git_metrics3cmd6format4textNtB6_10TextMetricNtNtBa_7prelude13PrettyDisplay5printINtB1c_11BasicWriterQINtNtCs2wnU2autU56_5alloc3vec3VechEEEBc_
FNDA:0,_RINvXs5_NtNtNtCsbwBEBaEzfvW_11git_metrics3cmd6format4textNtB6_10TextMetricNtNtBa_7prelude13PrettyDisplay5printINtB1c_13ColoredWriterQINtNtCs2wnU2autU56_5alloc3vec3VechEEEBc_
FNDA:1,_RNvNtNtNtNtCsbwBEBaEzfvW_11git_metrics3cmd6format4text5testss_37should_display_metric_with_single_tag
FNDA:1,_RNvNtNtNtNtCsbwBEBaEzfvW_11git_metrics3cmd6format4text5testss_40should_display_metric_with_multiple_tags
FNDA:1,_RNvNtNtNtNtCsbwBEBaEzfvW_11git_metrics3cmd6format4text5testss_37should_display_metric_with_empty_tags
FNF:12
FNH:12
DA:16,49
DA:17,49
DA:18,49
DA:21,41
DA:22,41
DA:23,41
DA:24,41
DA:28,49
DA:29,49
DA:30,41
DA:32,8
DA:34,49
DA:43,107
DA:44,107
DA:45,107
DA:49,107
DA:50,107
DA:51,73
DA:52,82
DA:53,82
DA:54,9
DA:55,73
DA:56,82
DA:58,73
DA:59,34
DA:60,107
DA:61,107
DA:70,101
DA:71,101
DA:72,101
DA:76,101
DA:77,101
DA:78,101
DA:79,101
DA:80,101
DA:81,101
DA:82,101
DA:92,23
DA:93,23
DA:94,23
DA:98,23
DA:99,23
DA:100,23
DA:101,23
DA:111,1
DA:112,1
DA:113,1
DA:114,1
DA:115,1
DA:116,1
DA:117,1
DA:118,1
DA:119,1
DA:120,1
DA:123,1
DA:124,1
DA:125,1
DA:126,1
DA:127,1
DA:128,1
DA:129,1
DA:130,1
DA:131,1
DA:132,1
DA:133,1
DA:134,1
DA:137,1
DA:138,1
DA:139,1
DA:140,1
DA:141,1
DA:142,1
DA:143,1
DA:144,1
DA:145,1
DA:146,1
BRF:0
BRH:0
LF:76
LH:76
end_of_record
SF:/code/git-metrics/src/cmd/import/mod.rs
FN:22,_RNvXNtNtCsbwBEBaEzfvW_11git_metrics3cmd6importNtB2_15CommandImporterNtNtB6_8importer8Importer6import
FN:48,_RINvXs_NtNtCsbwBEBaEzfvW_11git_metrics3cmd6importNtB5_13CommandImportNtB7_8Executor7executeNtNtNtB9_7backend4git211Git2BackendINtNtB7_7prelude11BasicWriterQINtNtCs2wnU2autU56_5alloc3vec3VechEEEB9_
FN:48,_RINvXs_NtNtCsbwBEBaEzfvW_11git_metrics3cmd6importNtB5_13CommandImportNtB7_8Executor7executeNtNtNtB9_7backend4git211Git2BackendINtNtB7_7prelude13ColoredWriterQINtNtCs2wnU2autU56_5alloc3vec3VechEEEB9_
FN:48,_RINvXs_NtNtCsbwBEBaEzfvW_11git_metrics3cmd6importNtB5_13CommandImportNtB7_8Executor7executeNtNtNtB9_7backend4mock11MockBackendINtNtB7_7prelude11BasicWriterQINtNtCs2wnU2autU56_5alloc3vec3VechEEEB9_
FN:48,_RINvXs_NtNtCsbwBEBaEzfvW_11git_metrics3cmd6importNtB5_13CommandImportNtB7_8Executor7executeNtNtNtB9_7backend4mock11MockBackendINtNtB7_7prelude13ColoredWriterQINtNtCs2wnU2autU56_5alloc3vec3VechEEEB9_
FN:48,_RINvXs_NtNtCsbwBEBaEzfvW_11git_metrics3cmd6importNtB5_13CommandImportNtB7_8Executor7executeNtNtNtB9_7backend7command14CommandBackendINtNtB7_7prelude11BasicWriterQINtNtCs2wnU2autU56_5alloc3vec3VechEEEB9_
FN:48,_RINvXs_NtNtCsbwBEBaEzfvW_11git_metrics3cmd6importNtB5_13CommandImportNtB7_8Executor7executeNtNtNtB9_7backend7command14CommandBackendINtNtB7_7prelude13ColoredWriterQINtNtCs2wnU2autU56_5alloc3vec3VechEEEB9_
FN:12,_RNCNvXs2_NtNtCsbwBEBaEzfvW_11git_metrics3cmd6importNtB7_12LcovImporterNtNtCs5tKP36R4pfF_12clap_builder6derive14FromArgMatches20from_arg_matches_mut0Bb_
FN:37,_RNCNvXsa_NtNtCsbwBEBaEzfvW_11git_metrics3cmd6importNtB7_13CommandImportNtNtCs5tKP36R4pfF_12clap_builder6derive14FromArgMatches20from_arg_matches_mut0Bb_
FN:41,_RNCNvXsa_NtNtCsbwBEBaEzfvW_11git_metrics3cmd6importNtB7_13CommandImportNtNtCs5tKP36R4pfF_12clap_builder6derive14FromArgMatches20from_arg_matches_muts_0Bb_
FN:12,_RNCNvXs2_NtNtCsbwBEBaEzfvW_11git_metrics3cmd6importNtB7_12LcovImporterNtNtCs5tKP36R4pfF_12clap_builder6derive14FromArgMatches27update_from_arg_matches_mut0Bb_
FN:37,_RNCNvXsa_NtNtCsbwBEBaEzfvW_11git_metrics3cmd6importNtB7_13CommandImportNtNtCs5tKP36R4pfF_12clap_builder6derive14FromArgMatches27update_from_arg_matches_mut0Bb_
FN:41,_RNCNvXsa_NtNtCsbwBEBaEzfvW_11git_metrics3cmd6importNtB7_13CommandImportNtNtCs5tKP36R4pfF_12clap_builder6derive14FromArgMatches27update_from_arg_matches_muts_0Bb_
FNDA:0,_RNvXNtNtCsbwBEBaEzfvW_11git_metrics3cmd6importNtB2_15CommandImporterNtNtB6_8importer8Importer6import
FNDA:0,_RINvXs_NtNtCsbwBEBaEzfvW_11git_metrics3cmd6importNtB5_13CommandImportNtB7_8Executor7executeNtNtNtB9_7backend4git211Git2BackendINtNtB7_7prelude11BasicWriterQINtNtCs2wnU2autU56_5alloc3vec3VechEEEB9_
FNDA:0,_RINvXs_NtNtCsbwBEBaEzfvW_11git_metrics3cmd6importNtB5_13CommandImportNtB7_8Executor7executeNtNtNtB9_7backend4git211Git2BackendINtNtB7_7prelude13ColoredWriterQINtNtCs2wnU2autU56_5alloc3vec3VechEEEB9_
FNDA:0,_RINvXs_NtNtCsbwBEBaEzfvW_11git_metrics3cmd6importNtB5_13CommandImportNtB7_8Executor7executeNtNtNtB9_7backend4mock11MockBackendINtNtB7_7prelude11BasicWriterQINtNtCs2wnU2autU56_5alloc3vec3VechEEEB9_
FNDA:0,_RINvXs_NtNtCsbwBEBaEzfvW_11git_metrics3cmd6importNtB5_13CommandImportNtB7_8Executor7executeNtNtNtB9_7backend4mock11MockBackendINtNtB7_7prelude13ColoredWriterQINtNtCs2wnU2autU56_5alloc3vec3VechEEEB9_
FNDA:0,_RINvXs_NtNtCsbwBEBaEzfvW_11git_metrics3cmd6importNtB5_13CommandImportNtB7_8Executor7executeNtNtNtB9_7backend7command14CommandBackendINtNtB7_7prelude11BasicWriterQINtNtCs2wnU2autU56_5alloc3vec3VechEEEB9_
FNDA:0,_RINvXs_NtNtCsbwBEBaEzfvW_11git_metrics3cmd6importNtB5_13CommandImportNtB7_8Executor7executeNtNtNtB9_7backend7command14CommandBackendINtNtB7_7prelude13ColoredWriterQINtNtCs2wnU2autU56_5alloc3vec3VechEEEB9_
FNDA:0,_RNCNvXs2_NtNtCsbwBEBaEzfvW_11git_metrics3cmd6importNtB7_12LcovImporterNtNtCs5tKP36R4pfF_12clap_builder6derive14FromArgMatches20from_arg_matches_mut0Bb_
FNDA:0,_RNCNvXsa_NtNtCsbwBEBaEzfvW_11git_metrics3cmd6importNtB7_13CommandImportNtNtCs5tKP36R4pfF_12clap_builder6derive14FromArgMatches20from_arg_matches_mut0Bb_
FNDA:0,_RNCNvXsa_NtNtCsbwBEBaEzfvW_11git_metrics3cmd6importNtB7_13CommandImportNtNtCs5tKP36R4pfF_12clap_builder6derive14FromArgMatches20from_arg_matches_muts_0Bb_
FNDA:0,_RNCNvXs2_NtNtCsbwBEBaEzfvW_11git_metrics3cmd6importNtB7_12LcovImporterNtNtCs5tKP36R4pfF_12clap_builder6derive14FromArgMatches27update_from_arg_matches_mut0Bb_
FNDA:0,_RNCNvXsa_NtNtCsbwBEBaEzfvW_11git_metrics3cmd6importNtB7_13CommandImportNtNtCs5tKP36R4pfF_12clap_builder6derive14FromArgMatches27update_from_arg_matches_mut0Bb_
FNDA:0,_RNCNvXsa_NtNtCsbwBEBaEzfvW_11git_metrics3cmd6importNtB7_13CommandImportNtNtCs5tKP36R4pfF_12clap_builder6derive14FromArgMatches27update_from_arg_matches_muts_0Bb_
FNF:5
FNH:0
DA:12,0
DA:22,0
DA:23,0
DA:24,0
DA:25,0
DA:26,0
DA:29,0
DA:37,0
DA:41,0
DA:48,0
DA:49,0
DA:50,0
DA:51,0
DA:52,0
DA:53,0
DA:54,0
DA:55,0
DA:56,0
DA:57,0
DA:58,0
DA:59,0
DA:61,0
DA:62,0
DA:63,0
DA:64,0
DA:65,0
DA:66,0
DA:67,0
DA:68,0
DA:69,0
DA:71,0
DA:72,0
DA:74,0
DA:75,0
DA:76,0
BRF:0
BRH:0
LF:35
LH:0
end_of_record
SF:/code/git-metrics/src/cmd/init.rs
FN:9,_RINvXNtNtCsbwBEBaEzfvW_11git_metrics3cmd4initNtB3_11CommandInitNtB5_8Executor7executeNtNtNtB7_7backend4git211Git2BackendINtNtB5_7prelude11BasicWriterQINtNtCs2wnU2autU56_5alloc3vec3VechEEEB7_
FN:9,_RINvXNtNtCsbwBEBaEzfvW_11git_metrics3cmd4initNtB3_11CommandInitNtB5_8Executor7executeNtNtNtB7_7backend4git211Git2BackendINtNtB5_7prelude13ColoredWriterQINtNtCs2wnU2autU56_5alloc3vec3VechEEEB7_
FN:9,_RINvXNtNtCsbwBEBaEzfvW_11git_metrics3cmd4initNtB3_11CommandInitNtB5_8Executor7executeNtNtNtB7_7backend4mock11MockBackendINtNtB5_7prelude11BasicWriterINtNtCs2wnU2autU56_5alloc3vec3VechEEEB7_
FN:9,_RINvXNtNtCsbwBEBaEzfvW_11git_metrics3cmd4initNtB3_11CommandInitNtB5_8Executor7executeNtNtNtB7_7backend4mock11MockBackendINtNtB5_7prelude11BasicWriterQINtNtCs2wnU2autU56_5alloc3vec3VechEEEB7_
FN:9,_RINvXNtNtCsbwBEBaEzfvW_11git_metrics3cmd4initNtB3_11CommandInitNtB5_8Executor7executeNtNtNtB7_7backend4mock11MockBackendINtNtB5_7prelude13ColoredWriterQINtNtCs2wnU2autU56_5alloc3vec3VechEEEB7_
FN:9,_RINvXNtNtCsbwBEBaEzfvW_11git_metrics3cmd4initNtB3_11CommandInitNtB5_8Executor7executeNtNtNtB7_7backend7command14CommandBackendINtNtB5_7prelude11BasicWriterQINtNtCs2wnU2autU56_5alloc3vec3VechEEEB7_
FN:9,_RINvXNtNtCsbwBEBaEzfvW_11git_metrics3cmd4initNtB3_11CommandInitNtB5_8Executor7executeNtNtNtB7_7backend7command14CommandBackendINtNtB5_7prelude13ColoredWriterQINtNtCs2wnU2autU56_5alloc3vec3VechEEEB7_
FN:27,_RNvNtNtNtCsbwBEBaEzfvW_11git_metrics3cmd4init5testss_25should_do_nothing_for_now
FNDA:0,_RINvXNtNtCsbwBEBaEzfvW_11git_metrics3cmd4initNtB3_11CommandInitNtB5_8Executor7executeNtNtNtB7_7backend4git211Git2BackendINtNtB5_7prelude11BasicWriterQINtNtCs2wnU2autU56_5alloc3vec3VechEEEB7_
FNDA:0,_RINvXNtNtCsbwBEBaEzfvW_11git_metrics3cmd4initNtB3_11CommandInitNtB5_8Executor7executeNtNtNtB7_7backend4git211Git2BackendINtNtB5_7prelude13ColoredWriterQINtNtCs2wnU2autU56_5alloc3vec3VechEEEB7_
FNDA:1,_RINvXNtNtCsbwBEBaEzfvW_11git_metrics3cmd4initNtB3_11CommandInitNtB5_8Executor7executeNtNtNtB7_7backend4mock11MockBackendINtNtB5_7prelude11BasicWriterINtNtCs2wnU2autU56_5alloc3vec3VechEEEB7_
FNDA:0,_RINvXNtNtCsbwBEBaEzfvW_11git_metrics3cmd4initNtB3_11CommandInitNtB5_8Executor7executeNtNtNtB7_7backend4mock11MockBackendINtNtB5_7prelude11BasicWriterQINtNtCs2wnU2autU56_5alloc3vec3VechEEEB7_
FNDA:0,_RINvXNtNtCsbwBEBaEzfvW_11git_metrics3cmd4initNtB3_11CommandInitNtB5_8Executor7executeNtNtNtB7_7backend4mock11MockBackendINtNtB5_7prelude13ColoredWriterQINtNtCs2wnU2autU56_5alloc3vec3VechEEEB7_
FNDA:0,_RINvXNtNtCsbwBEBaEzfvW_11git_metrics3cmd4initNtB3_11CommandInitNtB5_8Executor7executeNtNtNtB7_7backend7command14CommandBackendINtNtB5_7prelude11BasicWriterQINtNtCs2wnU2autU56_5alloc3vec3VechEEEB7_
FNDA:0,_RINvXNtNtCsbwBEBaEzfvW_11git_metrics3cmd4initNtB3_11CommandInitNtB5_8Executor7executeNtNtNtB7_7backend7command14CommandBackendINtNtB5_7prelude13ColoredWriterQINtNtCs2wnU2autU56_5alloc3vec3VechEEEB7_
FNDA:1,_RNvNtNtNtCsbwBEBaEzfvW_11git_metrics3cmd4init5testss_25should_do_nothing_for_now
FNF:2
FNH:2
DA:9,1
DA:10,1
DA:11,1
DA:12,1
DA:13,1
DA:14,1
DA:15,1
DA:27,1
DA:28,1
DA:29,1
DA:30,1
DA:31,1
DA:32,1
BRF:0
BRH:0
LF:13
LH:13
end_of_record
SF:/code/git-metrics/src/cmd/log/format.rs
FN:23,_RNvMNtNtNtCsbwBEBaEzfvW_11git_metrics3cmd3log6formatNtB2_10TextCommit3newB8_
FN:29,_RINvXs_NtNtNtCsbwBEBaEzfvW_11git_metrics3cmd3log6formatNtB5_10TextCommitNtNtB9_7prelude13PrettyDisplay5printINtB1a_11BasicWriterQINtNtCs2wnU2autU56_5alloc3vec3VechEEEBb_
FN:29,_RINvXs_NtNtNtCsbwBEBaEzfvW_11git_metrics3cmd3log6formatNtB5_10TextCommitNtNtB9_7prelude13PrettyDisplay5printINtB1a_13ColoredWriterQINtNtCs2wnU2autU56_5alloc3vec3VechEEEBb_
FN:47,_RINvMs0_NtNtNtCsbwBEBaEzfvW_11git_metrics3cmd3log6formatNtB6_13TextFormatter13format_metricINtNtBa_7prelude11BasicWriterQINtNtCs2wnU2autU56_5alloc3vec3VechEEEBc_
FN:47,_RINvMs0_NtNtNtCsbwBEBaEzfvW_11git_metrics3cmd3log6formatNtB6_13TextFormatter13format_metricINtNtBa_7prelude13ColoredWriterQINtNtCs2wnU2autU56_5alloc3vec3VechEEEBc_
FN:59,_RINvMs0_NtNtNtCsbwBEBaEzfvW_11git_metrics3cmd3log6formatNtB6_13TextFormatter13format_commitINtNtBa_7prelude11BasicWriterQINtNtCs2wnU2autU56_5alloc3vec3VechEEEBc_
FN:59,_RINvMs0_NtNtNtCsbwBEBaEzfvW_11git_metrics3cmd3log6formatNtB6_13TextFormatter13format_commitINtNtBa_7prelude13ColoredWriterQINtNtCs2wnU2autU56_5alloc3vec3VechEEEBc_
FN:64,_RINvMs0_NtNtNtCsbwBEBaEzfvW_11git_metrics3cmd3log6formatNtB6_13TextFormatter6formatINtNtBa_7prelude11BasicWriterQINtNtCs2wnU2autU56_5alloc3vec3VechEEEBc_
FN:64,_RINvMs0_NtNtNtCsbwBEBaEzfvW_11git_metrics3cmd3log6formatNtB6_13TextFormatter6formatINtNtBa_7prelude13ColoredWriterQINtNtCs2wnU2autU56_5alloc3vec3VechEEEBc_
FNDA:4,_RNvMNtNtNtCsbwBEBaEzfvW_11git_metrics3cmd3log6formatNtB2_10TextCommit3newB8_
FNDA:4,_RINvXs_NtNtNtCsbwBEBaEzfvW_11git_metrics3cmd3log6formatNtB5_10TextCommitNtNtB9_7prelude13PrettyDisplay5printINtB1a_11BasicWriterQINtNtCs2wnU2autU56_5alloc3vec3VechEEEBb_
FNDA:0,_RINvXs_NtNtNtCsbwBEBaEzfvW_11git_metrics3cmd3log6formatNtB5_10TextCommitNtNtB9_7prelude13PrettyDisplay5printINtB1a_13ColoredWriterQINtNtCs2wnU2autU56_5alloc3vec3VechEEEBb_
FNDA:6,_RINvMs0_NtNtNtCsbwBEBaEzfvW_11git_metrics3cmd3log6formatNtB6_13TextFormatter13format_metricINtNtBa_7prelude11BasicWriterQINtNtCs2wnU2autU56_5alloc3vec3VechEEEBc_
FNDA:0,_RINvMs0_NtNtNtCsbwBEBaEzfvW_11git_metrics3cmd3log6formatNtB6_13TextFormatter13format_metricINtNtBa_7prelude13ColoredWriterQINtNtCs2wnU2autU56_5alloc3vec3VechEEEBc_
FNDA:4,_RINvMs0_NtNtNtCsbwBEBaEzfvW_11git_metrics3cmd3log6formatNtB6_13TextFormatter13format_commitINtNtBa_7prelude11BasicWriterQINtNtCs2wnU2autU56_5alloc3vec3VechEEEBc_
FNDA:0,_RINvMs0_NtNtNtCsbwBEBaEzfvW_11git_metrics3cmd3log6formatNtB6_13TextFormatter13format_commitINtNtBa_7prelude13ColoredWriterQINtNtCs2wnU2autU56_5alloc3vec3VechEEEBc_
FNDA:2,_RINvMs0_NtNtNtCsbwBEBaEzfvW_11git_metrics3cmd3log6formatNtB6_13TextFormatter6formatINtNtBa_7prelude11BasicWriterQINtNtCs2wnU2autU56_5alloc3vec3VechEEEBc_
FNDA:0,_RINvMs0_NtNtNtCsbwBEBaEzfvW_11git_metrics3cmd3log6formatNtB6_13TextFormatter6formatINtNtBa_7prelude13ColoredWriterQINtNtCs2wnU2autU56_5alloc3vec3VechEEEBc_
FNF:5
FNH:5
DA:23,4
DA:24,4
DA:25,4
DA:29,4
DA:30,4
DA:31,4
DA:32,4
DA:33,4
DA:34,4
DA:35,4
DA:36,4
DA:37,4
DA:38,4
DA:47,6
DA:48,6
DA:49,6
DA:50,6
DA:51,6
DA:52,6
DA:53,6
DA:54,6
DA:55,6
DA:56,6
DA:57,6
DA:59,4
DA:60,4
DA:61,4
DA:62,4
DA:64,2
DA:65,2
DA:66,2
DA:67,2
DA:68,2
DA:69,2
DA:70,6
DA:71,4
DA:72,0
DA:73,4
DA:74,4
DA:75,4
DA:76,6
DA:77,6
DA:78,6
DA:81,2
DA:82,2
BRF:0
BRH:0
LF:45
LH:44
end_of_record
SF:/code/git-metrics/src/cmd/log/mod.rs
FN:23,_RINvXNtNtCsbwBEBaEzfvW_11git_metrics3cmd3logNtB3_10CommandLogNtB5_8Executor7executeNtNtNtB7_7backend4git211Git2BackendINtNtB5_7prelude11BasicWriterQINtNtCs2wnU2autU56_5alloc3vec3VechEEEB7_
FN:23,_RINvXNtNtCsbwBEBaEzfvW_11git_metrics3cmd3logNtB3_10CommandLogNtB5_8Executor7executeNtNtNtB7_7backend4git211Git2BackendINtNtB5_7prelude13ColoredWriterQINtNtCs2wnU2autU56_5alloc3vec3VechEEEB7_
FN:23,_RINvXNtNtCsbwBEBaEzfvW_11git_metrics3cmd3logNtB3_10CommandLogNtB5_8Executor7executeNtNtNtB7_7backend4mock11MockBackendINtNtB5_7prelude11BasicWriterQINtNtCs2wnU2autU56_5alloc3vec3VechEEEB7_
FN:23,_RINvXNtNtCsbwBEBaEzfvW_11git_metrics3cmd3logNtB3_10CommandLogNtB5_8Executor7executeNtNtNtB7_7backend4mock11MockBackendINtNtB5_7prelude13ColoredWriterQINtNtCs2wnU2autU56_5alloc3vec3VechEEEB7_
FN:23,_RINvXNtNtCsbwBEBaEzfvW_11git_metrics3cmd3logNtB3_10CommandLogNtB5_8Executor7executeNtNtNtB7_7backend7command14CommandBackendINtNtB5_7prelude11BasicWriterQINtNtCs2wnU2autU56_5alloc3vec3VechEEEB7_
FN:23,_RINvXNtNtCsbwBEBaEzfvW_11git_metrics3cmd3logNtB3_10CommandLogNtB5_8Executor7executeNtNtNtB7_7backend7command14CommandBackendINtNtB5_7prelude13ColoredWriterQINtNtCs2wnU2autU56_5alloc3vec3VechEEEB7_
FN:15,_RNCNvXs1_NtNtCsbwBEBaEzfvW_11git_metrics3cmd3logNtB7_10CommandLogNtNtCs5tKP36R4pfF_12clap_builder6derive14FromArgMatches20from_arg_matches_mut0Bb_
FN:19,_RNCNvXs1_NtNtCsbwBEBaEzfvW_11git_metrics3cmd3logNtB7_10CommandLogNtNtCs5tKP36R4pfF_12clap_builder6derive14FromArgMatches20from_arg_matches_muts_0Bb_
FN:48,_RNvNtNtNtCsbwBEBaEzfvW_11git_metrics3cmd3log5testss_18should_parse_range
FN:15,_RNCNvXs1_NtNtCsbwBEBaEzfvW_11git_metrics3cmd3logNtB7_10CommandLogNtNtCs5tKP36R4pfF_12clap_builder6derive14FromArgMatches27update_from_arg_matches_mut0Bb_
FN:19,_RNCNvXs1_NtNtCsbwBEBaEzfvW_11git_metrics3cmd3logNtB7_10CommandLogNtNtCs5tKP36R4pfF_12clap_builder6derive14FromArgMatches27update_from_arg_matches_muts_0Bb_
FNDA:1,_RINvXNtNtCsbwBEBaEzfvW_11git_metrics3cmd3logNtB3_10CommandLogNtB5_8Executor7executeNtNtNtB7_7backend4git211Git2BackendINtNtB5_7prelude11BasicWriterQINtNtCs2wnU2autU56_5alloc3vec3VechEEEB7_
FNDA:0,_RINvXNtNtCsbwBEBaEzfvW_11git_metrics3cmd3logNtB3_10CommandLogNtB5_8Executor7executeNtNtNtB7_7backend4git211Git2BackendINtNtB5_7prelude13ColoredWriterQINtNtCs2wnU2autU56_5alloc3vec3VechEEEB7_
FNDA:0,_RINvXNtNtCsbwBEBaEzfvW_11git_metrics3cmd3logNtB3_10CommandLogNtB5_8Executor7executeNtNtNtB7_7backend4mock11MockBackendINtNtB5_7prelude11BasicWriterQINtNtCs2wnU2autU56_5alloc3vec3VechEEEB7_
FNDA:0,_RINvXNtNtCsbwBEBaEzfvW_11git_metrics3cmd3logNtB3_10CommandLogNtB5_8Executor7executeNtNtNtB7_7backend4mock11MockBackendINtNtB5_7prelude13ColoredWriterQINtNtCs2wnU2autU56_5alloc3vec3VechEEEB7_
FNDA:1,_RINvXNtNtCsbwBEBaEzfvW_11git_metrics3cmd3logNtB3_10CommandLogNtB5_8Executor7executeNtNtNtB7_7backend7command14CommandBackendINtNtB5_7prelude11BasicWriterQINtNtCs2wnU2autU56_5alloc3vec3VechEEEB7_
FNDA:0,_RINvXNtNtCsbwBEBaEzfvW_11git_metrics3cmd3logNtB3_10CommandLogNtB5_8Executor7executeNtNtNtB7_7backend7command14CommandBackendINtNtB5_7prelude13ColoredWriterQINtNtCs2wnU2autU56_5alloc3vec3VechEEEB7_
FNDA:0,_RNCNvXs1_NtNtCsbwBEBaEzfvW_11git_metrics3cmd3logNtB7_10CommandLogNtNtCs5tKP36R4pfF_12clap_builder6derive14FromArgMatches20from_arg_matches_mut0Bb_
FNDA:0,_RNCNvXs1_NtNtCsbwBEBaEzfvW_11git_metrics3cmd3logNtB7_10CommandLogNtNtCs5tKP36R4pfF_12clap_builder6derive14FromArgMatches20from_arg_matches_muts_0Bb_
FNDA:1,_RNvNtNtNtCsbwBEBaEzfvW_11git_metrics3cmd3log5testss_18should_parse_range
FNDA:0,_RNCNvXs1_NtNtCsbwBEBaEzfvW_11git_metrics3cmd3logNtB7_10CommandLogNtNtCs5tKP36R4pfF_12clap_builder6derive14FromArgMatches27update_from_arg_matches_mut0Bb_
FNDA:0,_RNCNvXs1_NtNtCsbwBEBaEzfvW_11git_metrics3cmd3logNtB7_10CommandLogNtNtCs5tKP36R4pfF_12clap_builder6derive14FromArgMatches27update_from_arg_matches_muts_0Bb_
FNF:4
FNH:2
DA:15,0
DA:19,0
DA:23,2
DA:24,2
DA:25,2
DA:26,2
DA:27,2
DA:28,2
DA:29,2
DA:30,2
DA:31,2
DA:32,2
DA:33,2
DA:34,2
DA:35,2
DA:36,2
DA:37,2
DA:38,2
DA:48,1
DA:49,1
DA:50,1
DA:51,1
BRF:0
BRH:0
LF:22
LH:20
end_of_record
SF:/code/git-metrics/src/cmd/mod.rs
FN:48,_RNvXNtCsbwBEBaEzfvW_11git_metrics3cmdNtB2_7CommandNtNtCs2ke5FKHNm4X_4core7default7Default7default
FN:54,_RINvMs_NtCsbwBEBaEzfvW_11git_metrics3cmdNtB5_7Command12execute_withNtNtNtB7_7backend4git211Git2BackendINtNtB5_7prelude11BasicWriterQINtNtCs2wnU2autU56_5alloc3vec3VechEEEB7_
FN:54,_RINvMs_NtCsbwBEBaEzfvW_11git_metrics3cmdNtB5_7Command12execute_withNtNtNtB7_7backend4git211Git2BackendINtNtB5_7prelude13ColoredWriterQINtNtCs2wnU2autU56_5alloc3vec3VechEEEB7_
FN:54,_RINvMs_NtCsbwBEBaEzfvW_11git_metrics3cmdNtB5_7Command12execute_withNtNtNtB7_7backend4mock11MockBackendINtNtB5_7prelude11BasicWriterQINtNtCs2wnU2autU56_5alloc3vec3VechEEEB7_
FN:54,_RINvMs_NtCsbwBEBaEzfvW_11git_metrics3cmdNtB5_7Command12execute_withNtNtNtB7_7backend4mock11MockBackendINtNtB5_7prelude13ColoredWriterQINtNtCs2wnU2autU56_5alloc3vec3VechEEEB7_
FN:54,_RINvMs_NtCsbwBEBaEzfvW_11git_metrics3cmdNtB5_7Command12execute_withNtNtNtB7_7backend7command14CommandBackendINtNtB5_7prelude11BasicWriterQINtNtCs2wnU2autU56_5alloc3vec3VechEEEB7_
FN:54,_RINvMs_NtCsbwBEBaEzfvW_11git_metrics3cmdNtB5_7Command12execute_withNtNtNtB7_7backend7command14CommandBackendINtNtB5_7prelude13ColoredWriterQINtNtCs2wnU2autU56_5alloc3vec3VechEEEB7_
FN:74,_RINvMs_NtCsbwBEBaEzfvW_11git_metrics3cmdNtB5_7Command7executeNtNtNtB7_7backend4git211Git2BackendINtNtCs2wnU2autU56_5alloc3vec3VechEB1w_EB7_
FN:74,_RINvMs_NtCsbwBEBaEzfvW_11git_metrics3cmdNtB5_7Command7executeNtNtNtB7_7backend4mock11MockBackendINtNtCs2wnU2autU56_5alloc3vec3VechEB1w_EB7_
FN:74,_RINvMs_NtCsbwBEBaEzfvW_11git_metrics3cmdNtB5_7Command7executeNtNtNtB7_7backend7command14CommandBackendINtNtCs2wnU2autU56_5alloc3vec3VechEB1C_EB7_
FNDA:0,_RNvXNtCsbwBEBaEzfvW_11git_metrics3cmdNtB2_7CommandNtNtCs2ke5FKHNm4X_4core7default7Default7default
FNDA:50,_RINvMs_NtCsbwBEBaEzfvW_11git_metrics3cmdNtB5_7Command12execute_withNtNtNtB7_7backend4git211Git2BackendINtNtB5_7prelude11BasicWriterQINtNtCs2wnU2autU56_5alloc3vec3VechEEEB7_
FNDA:3,_RINvMs_NtCsbwBEBaEzfvW_11git_metrics3cmdNtB5_7Command12execute_withNtNtNtB7_7backend4git211Git2BackendINtNtB5_7prelude13ColoredWriterQINtNtCs2wnU2autU56_5alloc3vec3VechEEEB7_
FNDA:6,_RINvMs_NtCsbwBEBaEzfvW_11git_metrics3cmdNtB5_7Command12execute_withNtNtNtB7_7backend4mock11MockBackendINtNtB5_7prelude11BasicWriterQINtNtCs2wnU2autU56_5alloc3vec3VechEEEB7_
FNDA:0,_RINvMs_NtCsbwBEBaEzfvW_11git_metrics3cmdNtB5_7Command12execute_withNtNtNtB7_7backend4mock11MockBackendINtNtB5_7prelude13ColoredWriterQINtNtCs2wnU2autU56_5alloc3vec3VechEEEB7_
FNDA:32,_RINvMs_NtCsbwBEBaEzfvW_11git_metrics3cmdNtB5_7Command12execute_withNtNtNtB7_7backend7command14CommandBackendINtNtB5_7prelude11BasicWriterQINtNtCs2wnU2autU56_5alloc3vec3VechEEEB7_
FNDA:3,_RINvMs_NtCsbwBEBaEzfvW_11git_metrics3cmdNtB5_7Command12execute_withNtNtNtB7_7backend7command14CommandBackendINtNtB5_7prelude13ColoredWriterQINtNtCs2wnU2autU56_5alloc3vec3VechEEEB7_
FNDA:53,_RINvMs_NtCsbwBEBaEzfvW_11git_metrics3cmdNtB5_7Command7executeNtNtNtB7_7backend4git211Git2BackendINtNtCs2wnU2autU56_5alloc3vec3VechEB1w_EB7_
FNDA:6,_RINvMs_NtCsbwBEBaEzfvW_11git_metrics3cmdNtB5_7Command7executeNtNtNtB7_7backend4mock11MockBackendINtNtCs2wnU2autU56_5alloc3vec3VechEB1w_EB7_
FNDA:35,_RINvMs_NtCsbwBEBaEzfvW_11git_metrics3cmdNtB5_7Command7executeNtNtNtB7_7backend7command14CommandBackendINtNtCs2wnU2autU56_5alloc3vec3VechEB1C_EB7_
FNF:3
FNH:2
DA:48,0
DA:49,0
DA:50,0
DA:54,94
DA:55,94
DA:56,94
DA:57,94
DA:58,94
DA:59,94
DA:60,45
DA:61,4
DA:62,8
DA:63,0
DA:65,0
DA:66,2
DA:67,12
DA:68,10
DA:69,1
DA:70,12
DA:72,94
DA:74,94
DA:75,94
DA:76,94
DA:77,94
DA:78,94
DA:79,94
DA:80,94
DA:81,94
DA:82,6
DA:84,88
DA:87,94
DA:88,92
DA:89,2
DA:90,2
DA:91,2
DA:94,94
BRF:0
BRH:0
LF:36
LH:30
end_of_record
SF:/code/git-metrics/src/cmd/prelude.rs
FN:125,_RNvYNtNtNtNtCsbwBEBaEzfvW_11git_metrics3cmd6format4text10TextMetricNtNtB8_7prelude13PrettyDisplay15to_basic_stringBa_
FN:135,_RINvXs6_NtNtCsbwBEBaEzfvW_11git_metrics3cmd7preludeNtNtNtB8_5check6format14TextComparisonNtB6_13PrettyDisplay5printINtB6_11BasicWriterINtNtCs2wnU2autU56_5alloc3vec3VechEEEBa_
FN:135,_RINvXs6_NtNtCsbwBEBaEzfvW_11git_metrics3cmd7preludeNtNtNtB8_5check6format14TextComparisonNtB6_13PrettyDisplay5printINtB6_11BasicWriterQINtNtCs2wnU2autU56_5alloc3vec3VechEEEBa_
FN:135,_RINvXs6_NtNtCsbwBEBaEzfvW_11git_metrics3cmd7preludeNtNtNtB8_5check6format14TextComparisonNtB6_13PrettyDisplay5printINtB6_13ColoredWriterQINtNtCs2wnU2autU56_5alloc3vec3VechEEEBa_
FN:135,_RINvXs6_NtNtCsbwBEBaEzfvW_11git_metrics3cmd7preludeNtNtNtB8_5check6format8TextRuleNtB6_13PrettyDisplay5printINtB6_11BasicWriterINtNtCs2wnU2autU56_5alloc3vec3VechEEEBa_
FN:135,_RINvXs6_NtNtCsbwBEBaEzfvW_11git_metrics3cmd7preludeNtNtNtB8_5check6format8TextRuleNtB6_13PrettyDisplay5printINtB6_11BasicWriterQINtNtCs2wnU2autU56_5alloc3vec3VechEEEBa_
FN:135,_RINvXs6_NtNtCsbwBEBaEzfvW_11git_metrics3cmd7preludeNtNtNtB8_5check6format8TextRuleNtB6_13PrettyDisplay5printINtB6_13ColoredWriterQINtNtCs2wnU2autU56_5alloc3vec3VechEEEBa_
FN:135,_RINvXs6_NtNtCsbwBEBaEzfvW_11git_metrics3cmd7preludeNtNtNtB8_6format4text11TextPercentNtB6_13PrettyDisplay5printINtB6_11BasicWriterINtNtCs2wnU2autU56_5alloc3vec3VechEEEBa_
FN:135,_RINvXs6_NtNtCsbwBEBaEzfvW_11git_metrics3cmd7preludeNtNtNtB8_6format4text11TextPercentNtB6_13PrettyDisplay5printINtB6_11BasicWriterQINtNtCs2wnU2autU56_5alloc3vec3VechEEEBa_
FN:135,_RINvXs6_NtNtCsbwBEBaEzfvW_11git_metrics3cmd7preludeNtNtNtB8_6format4text11TextPercentNtB6_13PrettyDisplay5printINtB6_13ColoredWriterQINtNtCs2wnU2autU56_5alloc3vec3VechEEEBa_
FN:135,_RINvXs6_NtNtCsbwBEBaEzfvW_11git_metrics3cmd7preludeNtNtNtB8_6format4text14TextMetricTagsNtB6_13PrettyDisplay5printINtB6_11BasicWriterINtNtCs2wnU2autU56_5alloc3vec3VechEEEBa_
FN:135,_RINvXs6_NtNtCsbwBEBaEzfvW_11git_metrics3cmd7preludeNtNtNtB8_6format4text14TextMetricTagsNtB6_13PrettyDisplay5printINtB6_11BasicWriterQINtNtCs2wnU2autU56_5alloc3vec3VechEEEBa_
FN:135,_RINvXs6_NtNtCsbwBEBaEzfvW_11git_metrics3cmd7preludeNtNtNtB8_6format4text14TextMetricTagsNtB6_13PrettyDisplay5printINtB6_13ColoredWriterQINtNtCs2wnU2autU56_5alloc3vec3VechEEEBa_
FN:12,_RNvXNtNtCsbwBEBaEzfvW_11git_metrics3cmd7preludeNtB2_3TagNtNtNtCs2ke5FKHNm4X_4core3str6traits7FromStr8from_str
FN:14,_RNCNvXNtNtCsbwBEBaEzfvW_11git_metrics3cmd7preludeNtB4_3TagNtNtNtCs2ke5FKHNm4X_4core3str6traits7FromStr8from_str0B8_
FN:26,_RNvYINtNtNtCsbwBEBaEzfvW_11git_metrics3cmd7prelude11BasicWriterINtNtCs2wnU2autU56_5alloc3vec3VechEENtB5_12PrettyWriter9write_strB9_
FN:26,_RNvYINtNtNtCsbwBEBaEzfvW_11git_metrics3cmd7prelude11BasicWriterQINtNtCs2wnU2autU56_5alloc3vec3VechEENtB5_12PrettyWriter9write_strB9_
FN:26,_RNvYINtNtNtCsbwBEBaEzfvW_11git_metrics3cmd7prelude13ColoredWriterQINtNtCs2wnU2autU56_5alloc3vec3VechEENtB5_12PrettyWriter9write_strB9_
FN:31,_RINvYINtNtNtCsbwBEBaEzfvW_11git_metrics3cmd7prelude11BasicWriterINtNtCs2wnU2autU56_5alloc3vec3VechEENtB6_12PrettyWriter13write_elementNtNtNtB8_5check6format10TextStatusEBa_
FN:31,_RINvYINtNtNtCsbwBEBaEzfvW_11git_metrics3cmd7prelude11BasicWriterINtNtCs2wnU2autU56_5alloc3vec3VechEENtB6_12PrettyWriter13write_elementNtNtNtB8_5check6format14TextComparisonEBa_
FN:31,_RINvYINtNtNtCsbwBEBaEzfvW_11git_metrics3cmd7prelude11BasicWriterINtNtCs2wnU2autU56_5alloc3vec3VechEENtB6_12PrettyWriter13write_elementNtNtNtB8_5check6format15SmallTextStatusEBa_
FN:31,_RINvYINtNtNtCsbwBEBaEzfvW_11git_metrics3cmd7prelude11BasicWriterINtNtCs2wnU2autU56_5alloc3vec3VechEENtB6_12PrettyWriter13write_elementNtNtNtB8_5check6format8TextRuleEBa_
FN:31,_RINvYINtNtNtCsbwBEBaEzfvW_11git_metrics3cmd7prelude11BasicWriterINtNtCs2wnU2autU56_5alloc3vec3VechEENtB6_12PrettyWriter13write_elementNtNtNtB8_6format4text11TextPercentEBa_
FN:31,_RINvYINtNtNtCsbwBEBaEzfvW_11git_metrics3cmd7prelude11BasicWriterINtNtCs2wnU2autU56_5alloc3vec3VechEENtB6_12PrettyWriter13write_elementNtNtNtB8_6format4text16TextMetricHeaderEBa_
FN:31,_RINvYINtNtNtCsbwBEBaEzfvW_11git_metrics3cmd7prelude11BasicWriterQINtNtCs2wnU2autU56_5alloc3vec3VechEENtB6_12PrettyWriter13write_elementNtNtNtB8_5check6format10TextStatusEBa_
FN:31,_RINvYINtNtNtCsbwBEBaEzfvW_11git_metrics3cmd7prelude11BasicWriterQINtNtCs2wnU2autU56_5alloc3vec3VechEENtB6_12PrettyWriter13write_elementNtNtNtB8_5check6format14TextComparisonEBa_
FN:31,_RINvYINtNtNtCsbwBEBaEzfvW_11git_metrics3cmd7prelude11BasicWriterQINtNtCs2wnU2autU56_5alloc3vec3VechEENtB6_12PrettyWriter13write_elementNtNtNtB8_5check6format15SmallTextStatusEBa_
FN:31,_RINvYINtNtNtCsbwBEBaEzfvW_11git_metrics3cmd7prelude11BasicWriterQINtNtCs2wnU2autU56_5alloc3vec3VechEENtB6_12PrettyWriter13write_elementNtNtNtB8_5check6format8TextRuleEBa_
FN:31,_RINvYINtNtNtCsbwBEBaEzfvW_11git_metrics3cmd7prelude11BasicWriterQINtNtCs2wnU2autU56_5alloc3vec3VechEENtB6_12PrettyWriter13write_elementNtNtNtB8_6format4text10TextMetricEBa_
FN:31,_RINvYINtNtNtCsbwBEBaEzfvW_11git_metrics3cmd7prelude11BasicWriterQINtNtCs2wnU2autU56_5alloc3vec3VechEENtB6_12PrettyWriter13write_elementNtNtNtB8_6format4text11TextPercentEBa_
FN:31,_RINvYINtNtNtCsbwBEBaEzfvW_11git_metrics3cmd7prelude11BasicWriterQINtNtCs2wnU2autU56_5alloc3vec3VechEENtB6_12PrettyWriter13write_elementNtNtNtB8_6format4text16TextMetricHeaderEBa_
FN:31,_RINvYINtNtNtCsbwBEBaEzfvW_11git_metrics3cmd7prelude13ColoredWriterQINtNtCs2wnU2autU56_5alloc3vec3VechEENtB6_12PrettyWriter13write_elementNtNtNtB8_5check6format10TextStatusEBa_
FN:31,_RINvYINtNtNtCsbwBEBaEzfvW_11git_metrics3cmd7prelude13ColoredWriterQINtNtCs2wnU2autU56_5alloc3vec3VechEENtB6_12PrettyWriter13write_elementNtNtNtB8_5check6format14TextComparisonEBa_
FN:31,_RINvYINtNtNtCsbwBEBaEzfvW_11git_metrics3cmd7prelude13ColoredWriterQINtNtCs2wnU2autU56_5alloc3vec3VechEENtB6_12PrettyWriter13write_elementNtNtNtB8_5check6format15SmallTextStatusEBa_
FN:31,_RINvYINtNtNtCsbwBEBaEzfvW_11git_metrics3cmd7prelude13ColoredWriterQINtNtCs2wnU2autU56_5alloc3vec3VechEENtB6_12PrettyWriter13write_elementNtNtNtB8_5check6format8TextRuleEBa_
FN:31,_RINvYINtNtNtCsbwBEBaEzfvW_11git_metrics3cmd7prelude13ColoredWriterQINtNtCs2wnU2autU56_5alloc3vec3VechEENtB6_12PrettyWriter13write_elementNtNtNtB8_6format4text10TextMetricEBa_
FN:31,_RINvYINtNtNtCsbwBEBaEzfvW_11git_metrics3cmd7prelude13ColoredWriterQINtNtCs2wnU2autU56_5alloc3vec3VechEENtB6_12PrettyWriter13write_elementNtNtNtB8_6format4text11TextPercentEBa_
FN:31,_RINvYINtNtNtCsbwBEBaEzfvW_11git_metrics3cmd7prelude13ColoredWriterQINtNtCs2wnU2autU56_5alloc3vec3VechEENtB6_12PrettyWriter13write_elementNtNtNtB8_6format4text16TextMetricHeaderEBa_
FN:40,_RNvXs_NtNtCsbwBEBaEzfvW_11git_metrics3cmd7preludeINtB4_13ColoredWriterQINtNtCs2wnU2autU56_5alloc3vec3VechEEINtNtCs2ke5FKHNm4X_4core7convert4FromB16_E4fromB8_
FN:51,_RNvXs0_NtNtCsbwBEBaEzfvW_11git_metrics3cmd7preludeINtB5_13ColoredWriterQINtNtCs2wnU2autU56_5alloc3vec3VechEENtNtCsdxE0gjJwg7i_3std2io5Write9write_fmtB9_
FN:59,_RNvXs0_NtNtCsbwBEBaEzfvW_11git_metrics3cmd7preludeINtB5_13ColoredWriterQINtNtCs2wnU2autU56_5alloc3vec3VechEENtNtCsdxE0gjJwg7i_3std2io5Write5writeB9_
FN:70,_RINvXs1_NtNtCsbwBEBaEzfvW_11git_metrics3cmd7preludeINtB6_13ColoredWriterQINtNtCs2wnU2autU56_5alloc3vec3VechEENtB6_12PrettyWriter9set_styleNtNtCseuFyt52IGyl_12nu_ansi_term4ansi6PrefixEBa_
FN:70,_RINvXs1_NtNtCsbwBEBaEzfvW_11git_metrics3cmd7preludeINtB6_13ColoredWriterQINtNtCs2wnU2autU56_5alloc3vec3VechEENtB6_12PrettyWriter9set_styleNtNtCseuFyt52IGyl_12nu_ansi_term4ansi6SuffixEBa_
FN:80,_RNvXs2_NtNtCsbwBEBaEzfvW_11git_metrics3cmd7preludeINtB5_11BasicWriterINtNtCs2wnU2autU56_5alloc3vec3VechEEINtNtCs2ke5FKHNm4X_4core7convert4FromB15_E4fromB9_
FN:80,_RNvXs2_NtNtCsbwBEBaEzfvW_11git_metrics3cmd7preludeINtB5_11BasicWriterQINtNtCs2wnU2autU56_5alloc3vec3VechEEINtNtCs2ke5FKHNm4X_4core7convert4FromB15_E4fromB9_
FN:87,_RNvMs3_NtNtCsbwBEBaEzfvW_11git_metrics3cmd7preludeINtB5_11BasicWriterINtNtCs2wnU2autU56_5alloc3vec3VechEE11into_string
FN:98,_RNvXs4_NtNtCsbwBEBaEzfvW_11git_metrics3cmd7preludeINtB5_11BasicWriterINtNtCs2wnU2autU56_5alloc3vec3VechEENtNtCsdxE0gjJwg7i_3std2io5Write9write_fmtB9_
FN:98,_RNvXs4_NtNtCsbwBEBaEzfvW_11git_metrics3cmd7preludeINtB5_11BasicWriterQINtNtCs2wnU2autU56_5alloc3vec3VechEENtNtCsdxE0gjJwg7i_3std2io5Write9write_fmtB9_
FN:106,_RNvXs4_NtNtCsbwBEBaEzfvW_11git_metrics3cmd7preludeINtB5_11BasicWriterINtNtCs2wnU2autU56_5alloc3vec3VechEENtNtCsdxE0gjJwg7i_3std2io5Write5writeB9_
FN:106,_RNvXs4_NtNtCsbwBEBaEzfvW_11git_metrics3cmd7preludeINtB5_11BasicWriterQINtNtCs2wnU2autU56_5alloc3vec3VechEENtNtCsdxE0gjJwg7i_3std2io5Write5writeB9_
FN:116,_RINvXs5_NtNtCsbwBEBaEzfvW_11git_metrics3cmd7preludeINtB6_11BasicWriterINtNtCs2wnU2autU56_5alloc3vec3VechEENtB6_12PrettyWriter9set_styleNtNtCseuFyt52IGyl_12nu_ansi_term4ansi6PrefixEBa_
FN:116,_RINvXs5_NtNtCsbwBEBaEzfvW_11git_metrics3cmd7preludeINtB6_11BasicWriterINtNtCs2wnU2autU56_5alloc3vec3VechEENtB6_12PrettyWriter9set_styleNtNtCseuFyt52IGyl_12nu_ansi_term4ansi6SuffixEBa_
FN:116,_RINvXs5_NtNtCsbwBEBaEzfvW_11git_metrics3cmd7preludeINtB6_11BasicWriterQINtNtCs2wnU2autU56_5alloc3vec3VechEENtB6_12PrettyWriter9set_styleNtNtCseuFyt52IGyl_12nu_ansi_term4ansi6PrefixEBa_
FN:116,_RINvXs5_NtNtCsbwBEBaEzfvW_11git_metrics3cmd7preludeINtB6_11BasicWriterQINtNtCs2wnU2autU56_5alloc3vec3VechEENtB6_12PrettyWriter9set_styleNtNtCseuFyt52IGyl_12nu_ansi_term4ansi6SuffixEBa_
FN:129,_RNCNvYNtNtNtNtCsbwBEBaEzfvW_11git_metrics3cmd6format4text10TextMetricNtNtBa_7prelude13PrettyDisplay15to_basic_string0Bc_
FN:47,_RNvXININtNtCsbwBEBaEzfvW_11git_metrics3cmd7preludes0_0pEINtB5_13ColoredWriterpENtNtCsdxE0gjJwg7i_3std2io5Write14write_vectoredB9_
FN:55,_RNvXININtNtCsbwBEBaEzfvW_11git_metrics3cmd7preludes0_0pEINtB5_13ColoredWriterpENtNtCsdxE0gjJwg7i_3std2io5Write9write_allB9_
FN:63,_RNvXININtNtCsbwBEBaEzfvW_11git_metrics3cmd7preludes0_0pEINtB5_13ColoredWriterpENtNtCsdxE0gjJwg7i_3std2io5Write5flushB9_
FN:94,_RNvXININtNtCsbwBEBaEzfvW_11git_metrics3cmd7preludes4_0pEINtB5_11BasicWriterpENtNtCsdxE0gjJwg7i_3std2io5Write14write_vectoredB9_
FN:102,_RNvXININtNtCsbwBEBaEzfvW_11git_metrics3cmd7preludes4_0pEINtB5_11BasicWriterpENtNtCsdxE0gjJwg7i_3std2io5Write9write_allB9_
FN:110,_RNvXININtNtCsbwBEBaEzfvW_11git_metrics3cmd7preludes4_0pEINtB5_11BasicWriterpENtNtCsdxE0gjJwg7i_3std2io5Write5flushB9_
FNDA:3,_RNvYNtNtNtNtCsbwBEBaEzfvW_11git_metrics3cmd6format4text10TextMetricNtNtB8_7prelude13PrettyDisplay15to_basic_stringBa_
FNDA:14,_RINvXs6_NtNtCsbwBEBaEzfvW_11git_metrics3cmd7preludeNtNtNtB8_5check6format14TextComparisonNtB6_13PrettyDisplay5printINtB6_11BasicWriterINtNtCs2wnU2autU56_5alloc3vec3VechEEEBa_
FNDA:12,_RINvXs6_NtNtCsbwBEBaEzfvW_11git_metrics3cmd7preludeNtNtNtB8_5check6format14TextComparisonNtB6_13PrettyDisplay5printINtB6_11BasicWriterQINtNtCs2wnU2autU56_5alloc3vec3VechEEEBa_
FNDA:0,_RINvXs6_NtNtCsbwBEBaEzfvW_11git_metrics3cmd7preludeNtNtNtB8_5check6format14TextComparisonNtB6_13PrettyDisplay5printINtB6_13ColoredWriterQINtNtCs2wnU2autU56_5alloc3vec3VechEEEBa_
FNDA:11,_RINvXs6_NtNtCsbwBEBaEzfvW_11git_metrics3cmd7preludeNtNtNtB8_5check6format8TextRuleNtB6_13PrettyDisplay5printINtB6_11BasicWriterINtNtCs2wnU2autU56_5alloc3vec3VechEEEBa_
FNDA:6,_RINvXs6_NtNtCsbwBEBaEzfvW_11git_metrics3cmd7preludeNtNtNtB8_5check6format8TextRuleNtB6_13PrettyDisplay5printINtB6_11BasicWriterQINtNtCs2wnU2autU56_5alloc3vec3VechEEEBa_
FNDA:0,_RINvXs6_NtNtCsbwBEBaEzfvW_11git_metrics3cmd7preludeNtNtNtB8_5check6format8TextRuleNtB6_13PrettyDisplay5printINtB6_13ColoredWriterQINtNtCs2wnU2autU56_5alloc3vec3VechEEEBa_
FNDA:1,_RINvXs6_NtNtCsbwBEBaEzfvW_11git_metrics3cmd7preludeNtNtNtB8_6format4text11TextPercentNtB6_13PrettyDisplay5printINtB6_11BasicWriterINtNtCs2wnU2autU56_5alloc3vec3VechEEEBa_
FNDA:6,_RINvXs6_NtNtCsbwBEBaEzfvW_11git_metrics3cmd7preludeNtNtNtB8_6format4text11TextPercentNtB6_13PrettyDisplay5printINtB6_11BasicWriterQINtNtCs2wnU2autU56_5alloc3vec3VechEEEBa_
FNDA:18,_RINvXs6_NtNtCsbwBEBaEzfvW_11git_metrics3cmd7preludeNtNtNtB8_6format4text11TextPercentNtB6_13PrettyDisplay5printINtB6_13ColoredWriterQINtNtCs2wnU2autU56_5alloc3vec3VechEEEBa_
FNDA:21,_RINvXs6_NtNtCsbwBEBaEzfvW_11git_metrics3cmd7preludeNtNtNtB8_6format4text14TextMetricTagsNtB6_13PrettyDisplay5printINtB6_11BasicWriterINtNtCs2wnU2autU56_5alloc3vec3VechEEEBa_
FNDA:44,_RINvXs6_NtNtCsbwBEBaEzfvW_11git_metrics3cmd7preludeNtNtNtB8_6format4text14TextMetricTagsNtB6_13PrettyDisplay5printINtB6_11BasicWriterQINtNtCs2wnU2autU56_5alloc3vec3VechEEEBa_
FNDA:36,_RINvXs6_NtNtCsbwBEBaEzfvW_11git_metrics3cmd7preludeNtNtNtB8_6format4text14TextMetricTagsNtB6_13PrettyDisplay5printINtB6_13ColoredWriterQINtNtCs2wnU2autU56_5alloc3vec3VechEEEBa_
FNDA:35,_RNvXNtNtCsbwBEBaEzfvW_11git_metrics3cmd7preludeNtB2_3TagNtNtNtCs2ke5FKHNm4X_4core3str6traits7FromStr8from_str
FNDA:35,_RNCNvXNtNtCsbwBEBaEzfvW_11git_metrics3cmd7preludeNtB4_3TagNtNtNtCs2ke5FKHNm4X_4core3str6traits7FromStr8from_str0B8_
FNDA:116,_RNvYINtNtNtCsbwBEBaEzfvW_11git_metrics3cmd7prelude11BasicWriterINtNtCs2wnU2autU56_5alloc3vec3VechEENtB5_12PrettyWriter9write_strB9_
FNDA:176,_RNvYINtNtNtCsbwBEBaEzfvW_11git_metrics3cmd7prelude11BasicWriterQINtNtCs2wnU2autU56_5alloc3vec3VechEENtB5_12PrettyWriter9write_strB9_
FNDA:108,_RNvYINtNtNtCsbwBEBaEzfvW_11git_metrics3cmd7prelude13ColoredWriterQINtNtCs2wnU2autU56_5alloc3vec3VechEENtB5_12PrettyWriter9write_strB9_
FNDA:14,_RINvYINtNtNtCsbwBEBaEzfvW_11git_metrics3cmd7prelude11BasicWriterINtNtCs2wnU2autU56_5alloc3vec3VechEENtB6_12PrettyWriter13write_elementNtNtNtB8_5check6format10TextStatusEBa_
FNDA:14,_RINvYINtNtNtCsbwBEBaEzfvW_11git_metrics3cmd7prelude11BasicWriterINtNtCs2wnU2autU56_5alloc3vec3VechEENtB6_12PrettyWriter13write_elementNtNtNtB8_5check6format14TextComparisonEBa_
FNDA:11,_RINvYINtNtNtCsbwBEBaEzfvW_11git_metrics3cmd7prelude11BasicWriterINtNtCs2wnU2autU56_5alloc3vec3VechEENtB6_12PrettyWriter13write_elementNtNtNtB8_5check6format15SmallTextStatusEBa_
FNDA:11,_RINvYINtNtNtCsbwBEBaEzfvW_11git_metrics3cmd7prelude11BasicWriterINtNtCs2wnU2autU56_5alloc3vec3VechEENtB6_12PrettyWriter13write_elementNtNtNtB8_5check6format8TextRuleEBa_
FNDA:1,_RINvYINtNtNtCsbwBEBaEzfvW_11git_metrics3cmd7prelude11BasicWriterINtNtCs2wnU2autU56_5alloc3vec3VechEENtB6_12PrettyWriter13write_elementNtNtNtB8_6format4text11TextPercentEBa_
FNDA:18,_RINvYINtNtNtCsbwBEBaEzfvW_11git_metrics3cmd7prelude11BasicWriterINtNtCs2wnU2autU56_5alloc3vec3VechEENtB6_12PrettyWriter13write_elementNtNtNtB8_6format4text16TextMetricHeaderEBa_
FNDA:12,_RINvYINtNtNtCsbwBEBaEzfvW_11git_metrics3cmd7prelude11BasicWriterQINtNtCs2wnU2autU56_5alloc3vec3VechEENtB6_12PrettyWriter13write_elementNtNtNtB8_5check6format10TextStatusEBa_
FNDA:12,_RINvYINtNtNtCsbwBEBaEzfvW_11git_metrics3cmd7prelude11BasicWriterQINtNtCs2wnU2autU56_5alloc3vec3VechEENtB6_12PrettyWriter13write_elementNtNtNtB8_5check6format14TextComparisonEBa_
FNDA:6,_RINvYINtNtNtCsbwBEBaEzfvW_11git_metrics3cmd7prelude11BasicWriterQINtNtCs2wnU2autU56_5alloc3vec3VechEENtB6_12PrettyWriter13write_elementNtNtNtB8_5check6format15SmallTextStatusEBa_
FNDA:6,_RINvYINtNtNtCsbwBEBaEzfvW_11git_metrics3cmd7prelude11BasicWriterQINtNtCs2wnU2autU56_5alloc3vec3VechEENtB6_12PrettyWriter13write_elementNtNtNtB8_5check6format8TextRuleEBa_
FNDA:20,_RINvYINtNtNtCsbwBEBaEzfvW_11git_metrics3cmd7prelude11BasicWriterQINtNtCs2wnU2autU56_5alloc3vec3VechEENtB6_12PrettyWriter13write_elementNtNtNtB8_6format4text10TextMetricEBa_
FNDA:6,_RINvYINtNtNtCsbwBEBaEzfvW_11git_metrics3cmd7prelude11BasicWriterQINtNtCs2wnU2autU56_5alloc3vec3VechEENtB6_12PrettyWriter13write_elementNtNtNtB8_6format4text11TextPercentEBa_
FNDA:24,_RINvYINtNtNtCsbwBEBaEzfvW_11git_metrics3cmd7prelude11BasicWriterQINtNtCs2wnU2autU56_5alloc3vec3VechEENtB6_12PrettyWriter13write_elementNtNtNtB8_6format4text16TextMetricHeaderEBa_
FNDA:0,_RINvYINtNtNtCsbwBEBaEzfvW_11git_metrics3cmd7prelude13ColoredWriterQINtNtCs2wnU2autU56_5alloc3vec3VechEENtB6_12PrettyWriter13write_elementNtNtNtB8_5check6format10TextStatusEBa_
FNDA:0,_RINvYINtNtNtCsbwBEBaEzfvW_11git_metrics3cmd7prelude13ColoredWriterQINtNtCs2wnU2autU56_5alloc3vec3VechEENtB6_12PrettyWriter13write_elementNtNtNtB8_5check6format14TextComparisonEBa_
FNDA:0,_RINvYINtNtNtCsbwBEBaEzfvW_11git_metrics3cmd7prelude13ColoredWriterQINtNtCs2wnU2autU56_5alloc3vec3VechEENtB6_12PrettyWriter13write_elementNtNtNtB8_5check6format15SmallTextStatusEBa_
FNDA:0,_RINvYINtNtNtCsbwBEBaEzfvW_11git_metrics3cmd7prelude13ColoredWriterQINtNtCs2wnU2autU56_5alloc3vec3VechEENtB6_12PrettyWriter13write_elementNtNtNtB8_5check6format8TextRuleEBa_
FNDA:0,_RINvYINtNtNtCsbwBEBaEzfvW_11git_metrics3cmd7prelude13ColoredWriterQINtNtCs2wnU2autU56_5alloc3vec3VechEENtB6_12PrettyWriter13write_elementNtNtNtB8_6format4text10TextMetricEBa_
FNDA:18,_RINvYINtNtNtCsbwBEBaEzfvW_11git_metrics3cmd7prelude13ColoredWriterQINtNtCs2wnU2autU56_5alloc3vec3VechEENtB6_12PrettyWriter13write_elementNtNtNtB8_6format4text11TextPercentEBa_
FNDA:36,_RINvYINtNtNtCsbwBEBaEzfvW_11git_metrics3cmd7prelude13ColoredWriterQINtNtCs2wnU2autU56_5alloc3vec3VechEENtB6_12PrettyWriter13write_elementNtNtNtB8_6format4text16TextMetricHeaderEBa_
FNDA:6,_RNvXs_NtNtCsbwBEBaEzfvW_11git_metrics3cmd7preludeINtB4_13ColoredWriterQINtNtCs2wnU2autU56_5alloc3vec3VechEEINtNtCs2ke5FKHNm4X_4core7convert4FromB16_E4fromB8_
FNDA:108,_RNvXs0_NtNtCsbwBEBaEzfvW_11git_metrics3cmd7preludeINtB5_13ColoredWriterQINtNtCs2wnU2autU56_5alloc3vec3VechEENtNtCsdxE0gjJwg7i_3std2io5Write9write_fmtB9_
FNDA:108,_RNvXs0_NtNtCsbwBEBaEzfvW_11git_metrics3cmd7preludeINtB5_13ColoredWriterQINtNtCs2wnU2autU56_5alloc3vec3VechEENtNtCsdxE0gjJwg7i_3std2io5Write5writeB9_
FNDA:36,_RINvXs1_NtNtCsbwBEBaEzfvW_11git_metrics3cmd7preludeINtB6_13ColoredWriterQINtNtCs2wnU2autU56_5alloc3vec3VechEENtB6_12PrettyWriter9set_styleNtNtCseuFyt52IGyl_12nu_ansi_term4ansi6PrefixEBa_
FNDA:36,_RINvXs1_NtNtCsbwBEBaEzfvW_11git_metrics3cmd7preludeINtB6_13ColoredWriterQINtNtCs2wnU2autU56_5alloc3vec3VechEENtB6_12PrettyWriter9set_styleNtNtCseuFyt52IGyl_12nu_ansi_term4ansi6SuffixEBa_
FNDA:7,_RNvXs2_NtNtCsbwBEBaEzfvW_11git_metrics3cmd7preludeINtB5_11BasicWriterINtNtCs2wnU2autU56_5alloc3vec3VechEEINtNtCs2ke5FKHNm4X_4core7convert4FromB15_E4fromB9_
FNDA:88,_RNvXs2_NtNtCsbwBEBaEzfvW_11git_metrics3cmd7preludeINtB5_11BasicWriterQINtNtCs2wnU2autU56_5alloc3vec3VechEEINtNtCs2ke5FKHNm4X_4core7convert4FromB15_E4fromB9_
FNDA:3,_RNvMs3_NtNtCsbwBEBaEzfvW_11git_metrics3cmd7preludeINtB5_11BasicWriterINtNtCs2wnU2autU56_5alloc3vec3VechEE11into_string
FNDA:70,_RNvXs4_NtNtCsbwBEBaEzfvW_11git_metrics3cmd7preludeINtB5_11BasicWriterINtNtCs2wnU2autU56_5alloc3vec3VechEENtNtCsdxE0gjJwg7i_3std2io5Write9write_fmtB9_
FNDA:118,_RNvXs4_NtNtCsbwBEBaEzfvW_11git_metrics3cmd7preludeINtB5_11BasicWriterQINtNtCs2wnU2autU56_5alloc3vec3VechEENtNtCsdxE0gjJwg7i_3std2io5Write9write_fmtB9_
FNDA:116,_RNvXs4_NtNtCsbwBEBaEzfvW_11git_metrics3cmd7preludeINtB5_11BasicWriterINtNtCs2wnU2autU56_5alloc3vec3VechEENtNtCsdxE0gjJwg7i_3std2io5Write5writeB9_
FNDA:176,_RNvXs4_NtNtCsbwBEBaEzfvW_11git_metrics3cmd7preludeINtB5_11BasicWriterQINtNtCs2wnU2autU56_5alloc3vec3VechEENtNtCsdxE0gjJwg7i_3std2io5Write5writeB9_
FNDA:50,_RINvXs5_NtNtCsbwBEBaEzfvW_11git_metrics3cmd7preludeINtB6_11BasicWriterINtNtCs2wnU2autU56_5alloc3vec3VechEENtB6_12PrettyWriter9set_styleNtNtCseuFyt52IGyl_12nu_ansi_term4ansi6PrefixEBa_
FNDA:50,_RINvXs5_NtNtCsbwBEBaEzfvW_11git_metrics3cmd7preludeINtB6_11BasicWriterINtNtCs2wnU2autU56_5alloc3vec3VechEENtB6_12PrettyWriter9set_styleNtNtCseuFyt52IGyl_12nu_ansi_term4ansi6SuffixEBa_
FNDA:68,_RINvXs5_NtNtCsbwBEBaEzfvW_11git_metrics3cmd7preludeINtB6_11BasicWriterQINtNtCs2wnU2autU56_5alloc3vec3VechEENtB6_12PrettyWriter9set_styleNtNtCseuFyt52IGyl_12nu_ansi_term4ansi6PrefixEBa_
FNDA:68,_RINvXs5_NtNtCsbwBEBaEzfvW_11git_metrics3cmd7preludeINtB6_11BasicWriterQINtNtCs2wnU2autU56_5alloc3vec3VechEENtB6_12PrettyWriter9set_styleNtNtCseuFyt52IGyl_12nu_ansi_term4ansi6SuffixEBa_
FNDA:0,_RNCNvYNtNtNtNtCsbwBEBaEzfvW_11git_metrics3cmd6format4text10TextMetricNtNtBa_7prelude13PrettyDisplay15to_basic_string0Bc_
FNDA:0,_RNvXININtNtCsbwBEBaEzfvW_11git_metrics3cmd7preludes0_0pEINtB5_13ColoredWriterpENtNtCsdxE0gjJwg7i_3std2io5Write14write_vectoredB9_
FNDA:0,_RNvXININtNtCsbwBEBaEzfvW_11git_metrics3cmd7preludes0_0pEINtB5_13ColoredWriterpENtNtCsdxE0gjJwg7i_3std2io5Write9write_allB9_
FNDA:0,_RNvXININtNtCsbwBEBaEzfvW_11git_metrics3cmd7preludes0_0pEINtB5_13ColoredWriterpENtNtCsdxE0gjJwg7i_3std2io5Write5flushB9_
FNDA:0,_RNvXININtNtCsbwBEBaEzfvW_11git_metrics3cmd7preludes4_0pEINtB5_11BasicWriterpENtNtCsdxE0gjJwg7i_3std2io5Write14write_vectoredB9_
FNDA:0,_RNvXININtNtCsbwBEBaEzfvW_11git_metrics3cmd7preludes4_0pEINtB5_11BasicWriterpENtNtCsdxE0gjJwg7i_3std2io5Write9write_allB9_
FNDA:0,_RNvXININtNtCsbwBEBaEzfvW_11git_metrics3cmd7preludes4_0pEINtB5_11BasicWriterpENtNtCsdxE0gjJwg7i_3std2io5Write5flushB9_
FNF:22
FNH:15
DA:12,35
DA:13,35
DA:14,35
DA:15,35
DA:16,35
DA:17,35
DA:18,35
DA:19,35
DA:26,400
DA:27,400
DA:28,400
DA:31,209
DA:32,209
DA:33,209
DA:40,6
DA:41,6
DA:42,6
DA:47,0
DA:48,0
DA:49,0
DA:51,108
DA:52,108
DA:53,108
DA:55,0
DA:56,0
DA:57,0
DA:59,108
DA:60,108
DA:61,108
DA:63,0
DA:64,0
DA:65,0
DA:70,72
DA:71,72
DA:72,72
DA:73,72
DA:80,95
DA:81,95
DA:82,95
DA:87,3
DA:88,3
DA:89,3
DA:94,0
DA:95,0
DA:96,0
DA:98,188
DA:99,188
DA:100,188
DA:102,0
DA:103,0
DA:104,0
DA:106,292
DA:107,292
DA:108,292
DA:110,0
DA:111,0
DA:112,0
DA:116,236
DA:117,236
DA:118,236
DA:125,3
DA:126,3
DA:127,3
DA:128,3
DA:129,3
DA:130,3
DA:135,169
DA:136,169
DA:137,169
BRF:0
BRH:0
LF:72
LH:53
end_of_record
SF:/code/git-metrics/src/cmd/pull.rs
FN:11,_RNCNvXs1_NtNtCsbwBEBaEzfvW_11git_metrics3cmd4pullNtB7_11CommandPullNtNtCs5tKP36R4pfF_12clap_builder6derive14FromArgMatches20from_arg_matches_mut0Bb_
FN:15,_RINvXNtNtCsbwBEBaEzfvW_11git_metrics3cmd4pullNtB3_11CommandPullNtB5_8Executor7executeNtNtNtB7_7backend4git211Git2BackendINtNtB5_7prelude11BasicWriterQINtNtCs2wnU2autU56_5alloc3vec3VechEEEB7_
FN:15,_RINvXNtNtCsbwBEBaEzfvW_11git_metrics3cmd4pullNtB3_11CommandPullNtB5_8Executor7executeNtNtNtB7_7backend4git211Git2BackendINtNtB5_7prelude13ColoredWriterQINtNtCs2wnU2autU56_5alloc3vec3VechEEEB7_
FN:15,_RINvXNtNtCsbwBEBaEzfvW_11git_metrics3cmd4pullNtB3_11CommandPullNtB5_8Executor7executeNtNtNtB7_7backend4mock11MockBackendINtNtB5_7prelude11BasicWriterQINtNtCs2wnU2autU56_5alloc3vec3VechEEEB7_
FN:15,_RINvXNtNtCsbwBEBaEzfvW_11git_metrics3cmd4pullNtB3_11CommandPullNtB5_8Executor7executeNtNtNtB7_7backend4mock11MockBackendINtNtB5_7prelude13ColoredWriterQINtNtCs2wnU2autU56_5alloc3vec3VechEEEB7_
FN:15,_RINvXNtNtCsbwBEBaEzfvW_11git_metrics3cmd4pullNtB3_11CommandPullNtB5_8Executor7executeNtNtNtB7_7backend7command14CommandBackendINtNtB5_7prelude11BasicWriterQINtNtCs2wnU2autU56_5alloc3vec3VechEEEB7_
FN:15,_RINvXNtNtCsbwBEBaEzfvW_11git_metrics3cmd4pullNtB3_11CommandPullNtB5_8Executor7executeNtNtNtB7_7backend7command14CommandBackendINtNtB5_7prelude13ColoredWriterQINtNtCs2wnU2autU56_5alloc3vec3VechEEEB7_
FN:11,_RNCNvXs1_NtNtCsbwBEBaEzfvW_11git_metrics3cmd4pullNtB7_11CommandPullNtNtCs5tKP36R4pfF_12clap_builder6derive14FromArgMatches27update_from_arg_matches_mut0Bb_
FNDA:0,_RNCNvXs1_NtNtCsbwBEBaEzfvW_11git_metrics3cmd4pullNtB7_11CommandPullNtNtCs5tKP36R4pfF_12clap_builder6derive14FromArgMatches20from_arg_matches_mut0Bb_
FNDA:6,_RINvXNtNtCsbwBEBaEzfvW_11git_metrics3cmd4pullNtB3_11CommandPullNtB5_8Executor7executeNtNtNtB7_7backend4git211Git2BackendINtNtB5_7prelude11BasicWriterQINtNtCs2wnU2autU56_5alloc3vec3VechEEEB7_
FNDA:0,_RINvXNtNtCsbwBEBaEzfvW_11git_metrics3cmd4pullNtB3_11CommandPullNtB5_8Executor7executeNtNtNtB7_7backend4git211Git2BackendINtNtB5_7prelude13ColoredWriterQINtNtCs2wnU2autU56_5alloc3vec3VechEEEB7_
FNDA:0,_RINvXNtNtCsbwBEBaEzfvW_11git_metrics3cmd4pullNtB3_11CommandPullNtB5_8Executor7executeNtNtNtB7_7backend4mock11MockBackendINtNtB5_7prelude11BasicWriterQINtNtCs2wnU2autU56_5alloc3vec3VechEEEB7_
FNDA:0,_RINvXNtNtCsbwBEBaEzfvW_11git_metrics3cmd4pullNtB3_11CommandPullNtB5_8Executor7executeNtNtNtB7_7backend4mock11MockBackendINtNtB5_7prelude13ColoredWriterQINtNtCs2wnU2autU56_5alloc3vec3VechEEEB7_
FNDA:6,_RINvXNtNtCsbwBEBaEzfvW_11git_metrics3cmd4pullNtB3_11CommandPullNtB5_8Executor7executeNtNtNtB7_7backend7command14CommandBackendINtNtB5_7prelude11BasicWriterQINtNtCs2wnU2autU56_5alloc3vec3VechEEEB7_
FNDA:0,_RINvXNtNtCsbwBEBaEzfvW_11git_metrics3cmd4pullNtB3_11CommandPullNtB5_8Executor7executeNtNtNtB7_7backend7command14CommandBackendINtNtB5_7prelude13ColoredWriterQINtNtCs2wnU2autU56_5alloc3vec3VechEEEB7_
FNDA:0,_RNCNvXs1_NtNtCsbwBEBaEzfvW_11git_metrics3cmd4pullNtB7_11CommandPullNtNtCs5tKP36R4pfF_12clap_builder6derive14FromArgMatches27update_from_arg_matches_mut0Bb_
FNF:2
FNH:1
DA:11,0
DA:15,12
BRF:0
BRH:0
LF:2
LH:1
end_of_record
SF:/code/git-metrics/src/cmd/push.rs
FN:11,_RNCNvXs1_NtNtCsbwBEBaEzfvW_11git_metrics3cmd4pushNtB7_11CommandPushNtNtCs5tKP36R4pfF_12clap_builder6derive14FromArgMatches20from_arg_matches_mut0Bb_
FN:15,_RINvXNtNtCsbwBEBaEzfvW_11git_metrics3cmd4pushNtB3_11CommandPushNtB5_8Executor7executeNtNtNtB7_7backend4git211Git2BackendINtNtB5_7prelude11BasicWriterQINtNtCs2wnU2autU56_5alloc3vec3VechEEEB7_
FN:15,_RINvXNtNtCsbwBEBaEzfvW_11git_metrics3cmd4pushNtB3_11CommandPushNtB5_8Executor7executeNtNtNtB7_7backend4git211Git2BackendINtNtB5_7prelude13ColoredWriterQINtNtCs2wnU2autU56_5alloc3vec3VechEEEB7_
FN:15,_RINvXNtNtCsbwBEBaEzfvW_11git_metrics3cmd4pushNtB3_11CommandPushNtB5_8Executor7executeNtNtNtB7_7backend4mock11MockBackendINtNtB5_7prelude11BasicWriterQINtNtCs2wnU2autU56_5alloc3vec3VechEEEB7_
FN:15,_RINvXNtNtCsbwBEBaEzfvW_11git_metrics3cmd4pushNtB3_11CommandPushNtB5_8Executor7executeNtNtNtB7_7backend4mock11MockBackendINtNtB5_7prelude13ColoredWriterQINtNtCs2wnU2autU56_5alloc3vec3VechEEEB7_
FN:15,_RINvXNtNtCsbwBEBaEzfvW_11git_metrics3cmd4pushNtB3_11CommandPushNtB5_8Executor7executeNtNtNtB7_7backend7command14CommandBackendINtNtB5_7prelude11BasicWriterQINtNtCs2wnU2autU56_5alloc3vec3VechEEEB7_
FN:15,_RINvXNtNtCsbwBEBaEzfvW_11git_metrics3cmd4pushNtB3_11CommandPushNtB5_8Executor7executeNtNtNtB7_7backend7command14CommandBackendINtNtB5_7prelude13ColoredWriterQINtNtCs2wnU2autU56_5alloc3vec3VechEEEB7_
FN:11,_RNCNvXs1_NtNtCsbwBEBaEzfvW_11git_metrics3cmd4pushNtB7_11CommandPushNtNtCs5tKP36R4pfF_12clap_builder6derive14FromArgMatches27update_from_arg_matches_mut0Bb_
FNDA:0,_RNCNvXs1_NtNtCsbwBEBaEzfvW_11git_metrics3cmd4pushNtB7_11CommandPushNtNtCs5tKP36R4pfF_12clap_builder6derive14FromArgMatches20from_arg_matches_mut0Bb_
FNDA:6,_RINvXNtNtCsbwBEBaEzfvW_11git_metrics3cmd4pushNtB3_11CommandPushNtB5_8Executor7executeNtNtNtB7_7backend4git211Git2BackendINtNtB5_7prelude11BasicWriterQINtNtCs2wnU2autU56_5alloc3vec3VechEEEB7_
FNDA:0,_RINvXNtNtCsbwBEBaEzfvW_11git_metrics3cmd4pushNtB3_11CommandPushNtB5_8Executor7executeNtNtNtB7_7backend4git211Git2BackendINtNtB5_7prelude13ColoredWriterQINtNtCs2wnU2autU56_5alloc3vec3VechEEEB7_
FNDA:0,_RINvXNtNtCsbwBEBaEzfvW_11git_metrics3cmd4pushNtB3_11CommandPushNtB5_8Executor7executeNtNtNtB7_7backend4mock11MockBackendINtNtB5_7prelude11BasicWriterQINtNtCs2wnU2autU56_5alloc3vec3VechEEEB7_
FNDA:0,_RINvXNtNtCsbwBEBaEzfvW_11git_metrics3cmd4pushNtB3_11CommandPushNtB5_8Executor7executeNtNtNtB7_7backend4mock11MockBackendINtNtB5_7prelude13ColoredWriterQINtNtCs2wnU2autU56_5alloc3vec3VechEEEB7_
FNDA:4,_RINvXNtNtCsbwBEBaEzfvW_11git_metrics3cmd4pushNtB3_11CommandPushNtB5_8Executor7executeNtNtNtB7_7backend7command14CommandBackendINtNtB5_7prelude11BasicWriterQINtNtCs2wnU2autU56_5alloc3vec3VechEEEB7_
FNDA:0,_RINvXNtNtCsbwBEBaEzfvW_11git_metrics3cmd4pushNtB3_11CommandPushNtB5_8Executor7executeNtNtNtB7_7backend7command14CommandBackendINtNtB5_7prelude13ColoredWriterQINtNtCs2wnU2autU56_5alloc3vec3VechEEEB7_
FNDA:0,_RNCNvXs1_NtNtCsbwBEBaEzfvW_11git_metrics3cmd4pushNtB7_11CommandPushNtNtCs5tKP36R4pfF_12clap_builder6derive14FromArgMatches27update_from_arg_matches_mut0Bb_
FNF:2
FNH:1
DA:11,0
DA:15,10
BRF:0
BRH:0
LF:2
LH:1
end_of_record
SF:/code/git-metrics/src/cmd/remove.rs
FN:40,_RNvNtNtNtCsbwBEBaEzfvW_11git_metrics3cmd6remove5testss_20should_remove_metric
FN:11,_RNCNvXs1_NtNtCsbwBEBaEzfvW_11git_metrics3cmd6removeNtB7_13CommandRemoveNtNtCs5tKP36R4pfF_12clap_builder6derive14FromArgMatches20from_arg_matches_mut0Bb_
FN:13,_RNCNvXs1_NtNtCsbwBEBaEzfvW_11git_metrics3cmd6removeNtB7_13CommandRemoveNtNtCs5tKP36R4pfF_12clap_builder6derive14FromArgMatches20from_arg_matches_muts_0Bb_
FN:17,_RINvXNtNtCsbwBEBaEzfvW_11git_metrics3cmd6removeNtB3_13CommandRemoveNtB5_8Executor7executeNtNtNtB7_7backend4git211Git2BackendINtNtB5_7prelude11BasicWriterQINtNtCs2wnU2autU56_5alloc3vec3VechEEEB7_
FN:17,_RINvXNtNtCsbwBEBaEzfvW_11git_metrics3cmd6removeNtB3_13CommandRemoveNtB5_8Executor7executeNtNtNtB7_7backend4git211Git2BackendINtNtB5_7prelude13ColoredWriterQINtNtCs2wnU2autU56_5alloc3vec3VechEEEB7_
FN:17,_RINvXNtNtCsbwBEBaEzfvW_11git_metrics3cmd6removeNtB3_13CommandRemoveNtB5_8Executor7executeNtNtNtB7_7backend4mock11MockBackendINtNtB5_7prelude11BasicWriterQINtNtCs2wnU2autU56_5alloc3vec3VechEEEB7_
FN:17,_RINvXNtNtCsbwBEBaEzfvW_11git_metrics3cmd6removeNtB3_13CommandRemoveNtB5_8Executor7executeNtNtNtB7_7backend4mock11MockBackendINtNtB5_7prelude13ColoredWriterQINtNtCs2wnU2autU56_5alloc3vec3VechEEEB7_
FN:17,_RINvXNtNtCsbwBEBaEzfvW_11git_metrics3cmd6removeNtB3_13CommandRemoveNtB5_8Executor7executeNtNtNtB7_7backend7command14CommandBackendINtNtB5_7prelude11BasicWriterQINtNtCs2wnU2autU56_5alloc3vec3VechEEEB7_
FN:17,_RINvXNtNtCsbwBEBaEzfvW_11git_metrics3cmd6removeNtB3_13CommandRemoveNtB5_8Executor7executeNtNtNtB7_7backend7command14CommandBackendINtNtB5_7prelude13ColoredWriterQINtNtCs2wnU2autU56_5alloc3vec3VechEEEB7_
FN:11,_RNCNvXs1_NtNtCsbwBEBaEzfvW_11git_metrics3cmd6removeNtB7_13CommandRemoveNtNtCs5tKP36R4pfF_12clap_builder6derive14FromArgMatches27update_from_arg_matches_mut0Bb_
FN:13,_RNCNvXs1_NtNtCsbwBEBaEzfvW_11git_metrics3cmd6removeNtB7_13CommandRemoveNtNtCs5tKP36R4pfF_12clap_builder6derive14FromArgMatches27update_from_arg_matches_muts_0Bb_
FNDA:1,_RNvNtNtNtCsbwBEBaEzfvW_11git_metrics3cmd6remove5testss_20should_remove_metric
FNDA:0,_RNCNvXs1_NtNtCsbwBEBaEzfvW_11git_metrics3cmd6removeNtB7_13CommandRemoveNtNtCs5tKP36R4pfF_12clap_builder6derive14FromArgMatches20from_arg_matches_mut0Bb_
FNDA:0,_RNCNvXs1_NtNtCsbwBEBaEzfvW_11git_metrics3cmd6removeNtB7_13CommandRemoveNtNtCs5tKP36R4pfF_12clap_builder6derive14FromArgMatches20from_arg_matches_muts_0Bb_
FNDA:0,_RINvXNtNtCsbwBEBaEzfvW_11git_metrics3cmd6removeNtB3_13CommandRemoveNtB5_8Executor7executeNtNtNtB7_7backend4git211Git2BackendINtNtB5_7prelude11BasicWriterQINtNtCs2wnU2autU56_5alloc3vec3VechEEEB7_
FNDA:0,_RINvXNtNtCsbwBEBaEzfvW_11git_metrics3cmd6removeNtB3_13CommandRemoveNtB5_8Executor7executeNtNtNtB7_7backend4git211Git2BackendINtNtB5_7prelude13ColoredWriterQINtNtCs2wnU2autU56_5alloc3vec3VechEEEB7_
FNDA:1,_RINvXNtNtCsbwBEBaEzfvW_11git_metrics3cmd6removeNtB3_13CommandRemoveNtB5_8Executor7executeNtNtNtB7_7backend4mock11MockBackendINtNtB5_7prelude11BasicWriterQINtNtCs2wnU2autU56_5alloc3vec3VechEEEB7_
FNDA:0,_RINvXNtNtCsbwBEBaEzfvW_11git_metrics3cmd6removeNtB3_13CommandRemoveNtB5_8Executor7executeNtNtNtB7_7backend4mock11MockBackendINtNtB5_7prelude13ColoredWriterQINtNtCs2wnU2autU56_5alloc3vec3VechEEEB7_
FNDA:0,_RINvXNtNtCsbwBEBaEzfvW_11git_metrics3cmd6removeNtB3_13CommandRemoveNtB5_8Executor7executeNtNtNtB7_7backend7command14CommandBackendINtNtB5_7prelude11BasicWriterQINtNtCs2wnU2autU56_5alloc3vec3VechEEEB7_
FNDA:0,_RINvXNtNtCsbwBEBaEzfvW_11git_metrics3cmd6removeNtB3_13CommandRemoveNtB5_8Executor7executeNtNtNtB7_7backend7command14CommandBackendINtNtB5_7prelude13ColoredWriterQINtNtCs2wnU2autU56_5alloc3vec3VechEEEB7_
FNDA:0,_RNCNvXs1_NtNtCsbwBEBaEzfvW_11git_metrics3cmd6removeNtB7_13CommandRemoveNtNtCs5tKP36R4pfF_12clap_builder6derive14FromArgMatches27update_from_arg_matches_mut0Bb_
FNDA:0,_RNCNvXs1_NtNtCsbwBEBaEzfvW_11git_metrics3cmd6removeNtB7_13CommandRemoveNtNtCs5tKP36R4pfF_12clap_builder6derive14FromArgMatches27update_from_arg_matches_muts_0Bb_
FNF:4
FNH:2
DA:11,0
DA:13,0
DA:17,1
DA:40,1
DA:41,1
DA:42,1
DA:43,1
DA:44,1
DA:45,1
DA:46,1
DA:47,1
DA:48,1
DA:49,1
DA:50,1
DA:51,1
DA:52,1
DA:53,1
BRF:0
BRH:0
LF:17
LH:15
end_of_record
SF:/code/git-metrics/src/cmd/show.rs
FN:44,_RNvNtNtNtCsbwBEBaEzfvW_11git_metrics3cmd4show5testss_35should_read_head_and_return_nothing
FN:64,_RNvNtNtNtCsbwBEBaEzfvW_11git_metrics3cmd4show5testss_34should_read_hash_and_return_a_list
FN:13,_RNCNvXs1_NtNtCsbwBEBaEzfvW_11git_metrics3cmd4showNtB7_11CommandShowNtNtCs5tKP36R4pfF_12clap_builder6derive14FromArgMatches20from_arg_matches_mut0Bb_
FN:17,_RINvXNtNtCsbwBEBaEzfvW_11git_metrics3cmd4showNtB3_11CommandShowNtB5_8Executor7executeNtNtNtB7_7backend4git211Git2BackendINtNtB5_7prelude11BasicWriterQINtNtCs2wnU2autU56_5alloc3vec3VechEEEB7_
FN:17,_RINvXNtNtCsbwBEBaEzfvW_11git_metrics3cmd4showNtB3_11CommandShowNtB5_8Executor7executeNtNtNtB7_7backend4git211Git2BackendINtNtB5_7prelude13ColoredWriterQINtNtCs2wnU2autU56_5alloc3vec3VechEEEB7_
FN:17,_RINvXNtNtCsbwBEBaEzfvW_11git_metrics3cmd4showNtB3_11CommandShowNtB5_8Executor7executeNtNtNtB7_7backend4mock11MockBackendINtNtB5_7prelude11BasicWriterQINtNtCs2wnU2autU56_5alloc3vec3VechEEEB7_
FN:17,_RINvXNtNtCsbwBEBaEzfvW_11git_metrics3cmd4showNtB3_11CommandShowNtB5_8Executor7executeNtNtNtB7_7backend4mock11MockBackendINtNtB5_7prelude13ColoredWriterQINtNtCs2wnU2autU56_5alloc3vec3VechEEEB7_
FN:17,_RINvXNtNtCsbwBEBaEzfvW_11git_metrics3cmd4showNtB3_11CommandShowNtB5_8Executor7executeNtNtNtB7_7backend7command14CommandBackendINtNtB5_7prelude11BasicWriterQINtNtCs2wnU2autU56_5alloc3vec3VechEEEB7_
FN:17,_RINvXNtNtCsbwBEBaEzfvW_11git_metrics3cmd4showNtB3_11CommandShowNtB5_8Executor7executeNtNtNtB7_7backend7command14CommandBackendINtNtB5_7prelude13ColoredWriterQINtNtCs2wnU2autU56_5alloc3vec3VechEEEB7_
FN:13,_RNCNvXs1_NtNtCsbwBEBaEzfvW_11git_metrics3cmd4showNtB7_11CommandShowNtNtCs5tKP36R4pfF_12clap_builder6derive14FromArgMatches27update_from_arg_matches_mut0Bb_
FNDA:1,_RNvNtNtNtCsbwBEBaEzfvW_11git_metrics3cmd4show5testss_35should_read_head_and_return_nothing
FNDA:1,_RNvNtNtNtCsbwBEBaEzfvW_11git_metrics3cmd4show5testss_34should_read_hash_and_return_a_list
FNDA:0,_RNCNvXs1_NtNtCsbwBEBaEzfvW_11git_metrics3cmd4showNtB7_11CommandShowNtNtCs5tKP36R4pfF_12clap_builder6derive14FromArgMatches20from_arg_matches_mut0Bb_
FNDA:5,_RINvXNtNtCsbwBEBaEzfvW_11git_metrics3cmd4showNtB3_11CommandShowNtB5_8Executor7executeNtNtNtB7_7backend4git211Git2BackendINtNtB5_7prelude11BasicWriterQINtNtCs2wnU2autU56_5alloc3vec3VechEEEB7_
FNDA:0,_RINvXNtNtCsbwBEBaEzfvW_11git_metrics3cmd4showNtB3_11CommandShowNtB5_8Executor7executeNtNtNtB7_7backend4git211Git2BackendINtNtB5_7prelude13ColoredWriterQINtNtCs2wnU2autU56_5alloc3vec3VechEEEB7_
FNDA:2,_RINvXNtNtCsbwBEBaEzfvW_11git_metrics3cmd4showNtB3_11CommandShowNtB5_8Executor7executeNtNtNtB7_7backend4mock11MockBackendINtNtB5_7prelude11BasicWriterQINtNtCs2wnU2autU56_5alloc3vec3VechEEEB7_
FNDA:0,_RINvXNtNtCsbwBEBaEzfvW_11git_metrics3cmd4showNtB3_11CommandShowNtB5_8Executor7executeNtNtNtB7_7backend4mock11MockBackendINtNtB5_7prelude13ColoredWriterQINtNtCs2wnU2autU56_5alloc3vec3VechEEEB7_
FNDA:5,_RINvXNtNtCsbwBEBaEzfvW_11git_metrics3cmd4showNtB3_11CommandShowNtB5_8Executor7executeNtNtNtB7_7backend7command14CommandBackendINtNtB5_7prelude11BasicWriterQINtNtCs2wnU2autU56_5alloc3vec3VechEEEB7_
FNDA:0,_RINvXNtNtCsbwBEBaEzfvW_11git_metrics3cmd4showNtB3_11CommandShowNtB5_8Executor7executeNtNtNtB7_7backend7command14CommandBackendINtNtB5_7prelude13ColoredWriterQINtNtCs2wnU2autU56_5alloc3vec3VechEEEB7_
FNDA:0,_RNCNvXs1_NtNtCsbwBEBaEzfvW_11git_metrics3cmd4showNtB7_11CommandShowNtNtCs5tKP36R4pfF_12clap_builder6derive14FromArgMatches27update_from_arg_matches_mut0Bb_
FNF:4
FNH:3
DA:13,0
DA:17,12
DA:44,1
DA:45,1
DA:46,1
DA:47,1
DA:48,1
DA:49,1
DA:50,1
DA:51,1
DA:52,1
DA:53,1
DA:54,1
DA:55,1
DA:56,1
DA:57,1
DA:58,1
DA:59,1
DA:60,1
DA:61,1
DA:64,1
DA:65,1
DA:66,1
DA:67,1
DA:68,1
DA:69,1
DA:70,1
DA:71,1
DA:72,1
DA:73,1
DA:74,1
DA:75,1
DA:76,1
DA:77,1
DA:78,1
DA:79,1
DA:80,1
DA:81,1
DA:82,1
DA:83,1
DA:84,1
DA:85,1
DA:86,1
DA:87,1
DA:88,1
DA:89,1
DA:90,1
DA:91,1
DA:92,1
DA:93,1
DA:94,1
DA:95,1
DA:96,1
DA:97,1
DA:98,1
DA:99,1
DA:100,1
DA:102,1
DA:103,1
DA:104,1
BRF:0
BRH:0
LF:60
LH:59
end_of_record
SF:/code/git-metrics/src/entity/check.rs
FN:32,_RNvMs_NtNtCsbwBEBaEzfvW_11git_metrics6entity5checkNtB4_11StatusCount4push
FN:40,_RNvMs_NtNtCsbwBEBaEzfvW_11git_metrics6entity5checkNtB4_11StatusCount6extend
FN:46,_RNvMs_NtNtCsbwBEBaEzfvW_11git_metrics6entity5checkNtB4_11StatusCount9is_failed
FN:50,_RNvMs_NtNtCsbwBEBaEzfvW_11git_metrics6entity5checkNtB4_11StatusCount6status
FN:153,_RINvMs1_NtNtCsbwBEBaEzfvW_11git_metrics6entity5checkNtB6_11SubsetCheck13with_matchingReB1l_EBa_
FN:158,_RNvMs1_NtNtCsbwBEBaEzfvW_11git_metrics6entity5checkNtB5_11SubsetCheck10with_check
FN:166,_RNvMs2_NtNtCsbwBEBaEzfvW_11git_metrics6entity5checkNtB5_11SubsetCheck8evaluate
FN:197,_RNvMs3_NtNtCsbwBEBaEzfvW_11git_metrics6entity5checkNtB5_11MetricCheck3new
FN:206,_RNvMs3_NtNtCsbwBEBaEzfvW_11git_metrics6entity5checkNtB5_11MetricCheck10with_check
FN:212,_RINvMs3_NtNtCsbwBEBaEzfvW_11git_metrics6entity5checkNtB6_11MetricCheck11with_subsetReEBa_
FN:221,_RNvMs4_NtNtCsbwBEBaEzfvW_11git_metrics6entity5checkNtB5_11MetricCheck7neutralB9_
FN:230,_RNvMs4_NtNtCsbwBEBaEzfvW_11git_metrics6entity5checkNtB5_11MetricCheck8evaluate
FN:267,_RNvMs5_NtNtCsbwBEBaEzfvW_11git_metrics6entity5checkNtB5_9CheckList10with_check
FN:275,_RNvMs6_NtNtCsbwBEBaEzfvW_11git_metrics6entity5checkNtB5_9CheckList8evaluate
FN:298,_RNvNtNtNtCsbwBEBaEzfvW_11git_metrics6entity5check5testss_16should_check_max
FN:314,_RNvNtNtNtCsbwBEBaEzfvW_11git_metrics6entity5check5testss_16should_check_min
FN:327,_RNvNtNtNtCsbwBEBaEzfvW_11git_metrics6entity5check5testss_34should_check_max_absolute_increase
FN:345,_RNvNtNtNtCsbwBEBaEzfvW_11git_metrics6entity5check5testss_34should_check_max_relative_increase
FN:361,_RNvNtNtNtCsbwBEBaEzfvW_11git_metrics6entity5check5testss_34should_check_max_relative_decrease
FN:377,_RNvNtNtNtCsbwBEBaEzfvW_11git_metrics6entity5check5testss_34should_check_max_absolute_decrease
FN:62,_RNvMs0_NtNtCsbwBEBaEzfvW_11git_metrics6entity5checkNtNtB7_6config4Rule5check
FN:18,_RNvXNtNtCsbwBEBaEzfvW_11git_metrics6entity5checkNtB2_6StatusNtNtCs2ke5FKHNm4X_4core7default7Default7default
FNDA:60,_RNvMs_NtNtCsbwBEBaEzfvW_11git_metrics6entity5checkNtB4_11StatusCount4push
FNDA:66,_RNvMs_NtNtCsbwBEBaEzfvW_11git_metrics6entity5checkNtB4_11StatusCount6extend
FNDA:34,_RNvMs_NtNtCsbwBEBaEzfvW_11git_metrics6entity5checkNtB4_11StatusCount9is_failed
FNDA:26,_RNvMs_NtNtCsbwBEBaEzfvW_11git_metrics6entity5checkNtB4_11StatusCount6status
FNDA:8,_RINvMs1_NtNtCsbwBEBaEzfvW_11git_metrics6entity5checkNtB6_11SubsetCheck13with_matchingReB1l_EBa_
FNDA:7,_RNvMs1_NtNtCsbwBEBaEzfvW_11git_metrics6entity5checkNtB5_11SubsetCheck10with_check
FNDA:26,_RNvMs2_NtNtCsbwBEBaEzfvW_11git_metrics6entity5checkNtB5_11SubsetCheck8evaluate
FNDA:17,_RNvMs3_NtNtCsbwBEBaEzfvW_11git_metrics6entity5checkNtB5_11MetricCheck3new
FNDA:16,_RNvMs3_NtNtCsbwBEBaEzfvW_11git_metrics6entity5checkNtB5_11MetricCheck10with_check
FNDA:8,_RINvMs3_NtNtCsbwBEBaEzfvW_11git_metrics6entity5checkNtB6_11MetricCheck11with_subsetReEBa_
FNDA:0,_RNvMs4_NtNtCsbwBEBaEzfvW_11git_metrics6entity5checkNtB5_11MetricCheck7neutralB9_
FNDA:15,_RNvMs4_NtNtCsbwBEBaEzfvW_11git_metrics6entity5checkNtB5_11MetricCheck8evaluate
FNDA:17,_RNvMs5_NtNtCsbwBEBaEzfvW_11git_metrics6entity5checkNtB5_9CheckList10with_check
FNDA:6,_RNvMs6_NtNtCsbwBEBaEzfvW_11git_metrics6entity5checkNtB5_9CheckList8evaluate
FNDA:1,_RNvNtNtNtCsbwBEBaEzfvW_11git_metrics6entity5check5testss_16should_check_max
FNDA:1,_RNvNtNtNtCsbwBEBaEzfvW_11git_metrics6entity5check5testss_16should_check_min
FNDA:1,_RNvNtNtNtCsbwBEBaEzfvW_11git_metrics6entity5check5testss_34should_check_max_absolute_increase
FNDA:1,_RNvNtNtNtCsbwBEBaEzfvW_11git_metrics6entity5check5testss_34should_check_max_relative_increase
FNDA:1,_RNvNtNtNtCsbwBEBaEzfvW_11git_metrics6entity5check5testss_34should_check_max_relative_decrease
FNDA:1,_RNvNtNtNtCsbwBEBaEzfvW_11git_metrics6entity5check5testss_34should_check_max_absolute_decrease
FNDA:66,_RNvMs0_NtNtCsbwBEBaEzfvW_11git_metrics6entity5checkNtNtB7_6config4Rule5check
FNDA:0,_RNvXNtNtCsbwBEBaEzfvW_11git_metrics6entity5checkNtB2_6StatusNtNtCs2ke5FKHNm4X_4core7default7Default7default
FNF:22
FNH:20
DA:18,0
DA:19,0
DA:20,0
DA:32,60
DA:33,60
DA:34,42
DA:35,2
DA:36,16
DA:38,60
DA:40,66
DA:41,66
DA:42,66
DA:43,66
DA:44,66
DA:46,34
DA:47,34
DA:48,34
DA:50,26
DA:51,26
DA:52,8
DA:53,18
DA:54,14
DA:56,4
DA:58,26
DA:62,66
DA:63,23
DA:64,28
DA:65,25
DA:66,2
DA:68,5
DA:70,1
DA:71,22
DA:73,5
DA:74,2
DA:75,2
DA:77,2
DA:79,1
DA:80,2
DA:82,4
DA:83,1
DA:85,3
DA:86,3
DA:87,3
DA:88,2
DA:90,19
DA:91,16
DA:92,16
DA:93,16
DA:94,16
DA:95,16
DA:96,16
DA:97,16
DA:98,16
DA:105,9
DA:106,3
DA:108,5
DA:109,2
DA:110,2
DA:111,2
DA:112,2
DA:113,2
DA:114,2
DA:115,2
DA:116,2
DA:123,1
DA:124,3
DA:126,5
DA:127,2
DA:129,3
DA:130,3
DA:131,3
DA:132,2
DA:135,66
DA:153,8
DA:154,8
DA:155,8
DA:156,8
DA:158,7
DA:159,7
DA:160,7
DA:161,7
DA:162,7
DA:166,26
DA:167,26
DA:168,26
DA:169,26
DA:170,9
DA:171,9
DA:172,9
DA:173,9
DA:174,9
DA:175,9
DA:176,9
DA:177,9
DA:178,17
DA:179,26
DA:180,26
DA:181,26
DA:182,26
DA:183,26
DA:184,26
DA:197,17
DA:198,17
DA:199,17
DA:200,17
DA:201,17
DA:202,17
DA:203,17
DA:204,17
DA:206,16
DA:207,16
DA:208,16
DA:209,16
DA:210,16
DA:212,8
DA:213,8
DA:214,8
DA:215,8
DA:216,8
DA:221,0
DA:222,0
DA:223,0
DA:224,0
DA:225,0
DA:226,0
DA:227,0
DA:228,0
DA:230,15
DA:231,15
DA:232,15
DA:233,15
DA:234,28
DA:235,28
DA:236,28
DA:237,28
DA:238,28
DA:239,28
DA:240,28
DA:241,28
DA:243,15
DA:244,26
DA:245,26
DA:246,26
DA:247,26
DA:248,26
DA:250,15
DA:251,15
DA:252,15
DA:253,15
DA:254,15
DA:255,15
DA:256,15
DA:267,17
DA:268,17
DA:269,17
DA:270,17
DA:271,17
DA:275,6
DA:276,6
DA:277,6
DA:279,15
DA:280,15
DA:281,15
DA:282,15
DA:283,15
DA:284,15
DA:285,0
DA:286,0
DA:289,6
DA:290,6
DA:298,1
DA:299,1
DA:300,1
DA:301,1
DA:302,1
DA:303,1
DA:304,1
DA:305,1
DA:306,1
DA:307,1
DA:308,1
DA:309,1
DA:310,1
DA:311,1
DA:314,1
DA:315,1
DA:316,1
DA:317,1
DA:318,1
DA:319,1
DA:320,1
DA:321,1
DA:322,1
DA:323,1
DA:324,1
DA:327,1
DA:328,1
DA:329,1
DA:330,1
DA:331,1
DA:332,1
DA:333,1
DA:334,1
DA:335,1
DA:336,1
DA:337,1
DA:338,1
DA:339,1
DA:340,1
DA:341,1
DA:342,1
DA:345,1
DA:346,1
DA:347,1
DA:348,1
DA:349,1
DA:350,1
DA:351,1
DA:352,1
DA:353,1
DA:354,1
DA:355,1
DA:356,1
DA:357,1
DA:358,1
DA:361,1
DA:362,1
DA:363,1
DA:364,1
DA:365,1
DA:366,1
DA:367,1
DA:368,1
DA:369,1
DA:370,1
DA:371,1
DA:372,1
DA:373,1
DA:374,1
DA:377,1
DA:378,1
DA:379,1
DA:380,1
DA:381,1
DA:382,1
DA:383,1
DA:384,1
DA:385,1
DA:386,1
DA:387,1
DA:388,1
DA:389,1
DA:390,1
DA:391,1
DA:392,1
DA:393,1
BRF:0
BRH:0
LF:256
LH:243
end_of_record
SF:/code/git-metrics/src/entity/config.rs
FN:212,_RNvNtNtNtCsbwBEBaEzfvW_11git_metrics6entity6config5tests18should_deserialize
FN:223,_RNvNtNtNtCsbwBEBaEzfvW_11git_metrics6entity6config5testss_35should_deserialize_with_simple_name
FN:233,_RNvNtNtNtCsbwBEBaEzfvW_11git_metrics6entity6config5testss_43should_deserialize_with_name_containing_dot
FN:246,_RNvNtNtNtCsbwBEBaEzfvW_11git_metrics6entity6config5testss_45should_deserialize_with_relative_and_absolute
FN:12,_RNvNtNtCsbwBEBaEzfvW_11git_metrics6entity6config24undefined_unit_formatterB5_
FN:44,_RNvMNtNtCsbwBEBaEzfvW_11git_metrics6entity6configNtB2_4Rule3max
FN:48,_RNvMNtNtCsbwBEBaEzfvW_11git_metrics6entity6configNtB2_4Rule21max_absolute_increase
FN:52,_RNvMNtNtCsbwBEBaEzfvW_11git_metrics6entity6configNtB2_4Rule21max_relative_increase
FN:56,_RNvMNtNtCsbwBEBaEzfvW_11git_metrics6entity6configNtB2_4Rule3min
FN:60,_RNvMNtNtCsbwBEBaEzfvW_11git_metrics6entity6configNtB2_4Rule21max_absolute_decrease
FN:64,_RNvMNtNtCsbwBEBaEzfvW_11git_metrics6entity6configNtB2_4Rule21max_relative_decrease
FN:78,_RNvMs_NtNtCsbwBEBaEzfvW_11git_metrics6entity6configNtB4_12SubsetConfig7matches
FN:81,_RNCNvMs_NtNtCsbwBEBaEzfvW_11git_metrics6entity6configNtB6_12SubsetConfig7matches0Ba_
FN:81,_RNCNCNvMs_NtNtCsbwBEBaEzfvW_11git_metrics6entity6configNtB8_12SubsetConfig7matches00Bc_
FN:105,_RINvMs0_NtNtCsbwBEBaEzfvW_11git_metrics6entity6configNtB6_4Unit3newNtNtCs2wnU2autU56_5alloc6string6StringEBa_
FN:108,_RNCINvMs0_NtNtCsbwBEBaEzfvW_11git_metrics6entity6configNtB8_4Unit3newNtNtCs2wnU2autU56_5alloc6string6StringE0Bc_
FN:113,_RNvMs0_NtNtCsbwBEBaEzfvW_11git_metrics6entity6configNtB5_4Unit6binary
FN:117,_RINvMs0_NtNtCsbwBEBaEzfvW_11git_metrics6entity6configNtB6_4Unit11with_suffixReEBa_
FN:124,_RNvMs1_NtNtCsbwBEBaEzfvW_11git_metrics6entity6configNtB5_4Unit8formater
FN:153,_RNvMs2_NtNtCsbwBEBaEzfvW_11git_metrics6entity6configNtB5_12MetricConfig9with_unit
FN:167,_RINvMs3_NtNtCsbwBEBaEzfvW_11git_metrics6entity6configNtB6_6Config11with_metricReEBa_
FN:174,_RNvMs4_NtNtCsbwBEBaEzfvW_11git_metrics6entity6configNtB5_6Config9from_path
FN:180,_RNvMs4_NtNtCsbwBEBaEzfvW_11git_metrics6entity6configNtB5_6Config14from_root_path
FN:189,_RNvMs4_NtNtCsbwBEBaEzfvW_11git_metrics6entity6configNtB5_6Config9formatter
FN:201,_RNvXs5_NtNtCsbwBEBaEzfvW_11git_metrics6entity6configNtB5_6ConfigNtNtNtCs2ke5FKHNm4X_4core3str6traits7FromStr8from_str
FN:204,_RNCNvXs5_NtNtCsbwBEBaEzfvW_11git_metrics6entity6configNtB7_6ConfigNtNtNtCs2ke5FKHNm4X_4core3str6traits7FromStr8from_str0Bb_
FN:16,_RNvXNvXNvNtNtCsbwBEBaEzfvW_11git_metrics6entity6config1__NtB7_12RuleAbsoluteNtNtCslI84mjRi2PN_5serde2de11Deserialize11deserializeNtB2_14___FieldVisitorNtB1e_7Visitor9expecting
FN:16,_RINvXNvXNvNtNtCsbwBEBaEzfvW_11git_metrics6entity6config1__NtB8_12RuleAbsoluteNtNtCslI84mjRi2PN_5serde2de11Deserialize11deserializeNtB3_14___FieldVisitorNtB1f_7Visitor9visit_u64NtNtCs6lm0jMM3zOD_9toml_edit2de5ErrorEBc_
FN:16,_RINvXNvXNvNtNtCsbwBEBaEzfvW_11git_metrics6entity6config1__NtB8_12RuleAbsoluteNtNtCslI84mjRi2PN_5serde2de11Deserialize11deserializeNtB3_14___FieldVisitorNtB1f_7Visitor9visit_strNtNtCs6lm0jMM3zOD_9toml_edit2de5ErrorEBc_
FN:16,_RINvXNvXNvNtNtCsbwBEBaEzfvW_11git_metrics6entity6config1__NtB8_12RuleAbsoluteNtNtCslI84mjRi2PN_5serde2de11Deserialize11deserializeNtB3_14___FieldVisitorNtB1f_7Visitor11visit_bytesNtNtCs6lm0jMM3zOD_9toml_edit2de5ErrorEBc_
FN:16,_RINvXs_NvXNvNtNtCsbwBEBaEzfvW_11git_metrics6entity6config1__NtBa_12RuleAbsoluteNtNtCslI84mjRi2PN_5serde2de11Deserialize11deserializeNtB5_7___FieldB1f_11deserializeINtNtNtNtB1j_9___private2de7content19ContentDeserializerNtNtCs6lm0jMM3zOD_9toml_edit2de5ErrorEEBe_
FN:16,_RINvXs_NvXNvNtNtCsbwBEBaEzfvW_11git_metrics6entity6config1__NtBa_12RuleAbsoluteNtNtCslI84mjRi2PN_5serde2de11Deserialize11deserializeNtB5_7___FieldB1f_11deserializeINtNtNtNtB1j_9___private2de7content22ContentRefDeserializerNtNtCs6lm0jMM3zOD_9toml_edit2de5ErrorEEBe_
FN:16,_RNvXs0_NvXNvNtNtCsbwBEBaEzfvW_11git_metrics6entity6config1__NtBa_12RuleAbsoluteNtNtCslI84mjRi2PN_5serde2de11Deserialize11deserializeNtB5_9___VisitorNtB1h_7Visitor9expecting
FN:16,_RINvXs0_NvXNvNtNtCsbwBEBaEzfvW_11git_metrics6entity6config1__NtBb_12RuleAbsoluteNtNtCslI84mjRi2PN_5serde2de11Deserialize11deserializeNtB6_9___VisitorNtB1i_7Visitor9visit_seqQINtNtB1i_5value15SeqDeserializerINtNtNtNtCs2ke5FKHNm4X_4core4iter8adapters3map3MapINtNtNtB3r_5slice4iter4IterNtNtNtNtB1k_9___private2de7content7ContentENvMsk_B4z_INtB4z_22ContentRefDeserializerNtNtCs6lm0jMM3zOD_9toml_edit2de5ErrorE3newEB5T_EEBf_
FN:16,_RINvXs0_NvXNvNtNtCsbwBEBaEzfvW_11git_metrics6entity6config1__NtBb_12RuleAbsoluteNtNtCslI84mjRi2PN_5serde2de11Deserialize11deserializeNtB6_9___VisitorNtB1i_7Visitor9visit_seqQINtNtB1i_5value15SeqDeserializerINtNtNtNtCs2ke5FKHNm4X_4core4iter8adapters3map3MapINtNtNtCs2wnU2autU56_5alloc3vec9into_iter8IntoIterNtNtNtNtB1k_9___private2de7content7ContentENvMse_B4W_INtB4W_19ContentDeserializerNtNtCs6lm0jMM3zOD_9toml_edit2de5ErrorE3newEB6d_EEBf_
FN:16,_RINvXs0_NvXNvNtNtCsbwBEBaEzfvW_11git_metrics6entity6config1__NtBb_12RuleAbsoluteNtNtCslI84mjRi2PN_5serde2de11Deserialize11deserializeNtB6_9___VisitorNtB1i_7Visitor9visit_mapQINtNtB1i_5value15MapDeserializerINtNtNtNtCs2ke5FKHNm4X_4core4iter8adapters3map3MapINtNtNtB3r_5slice4iter4IterTNtNtNtNtB1k_9___private2de7content7ContentB4y_EENCINvB4A_21visit_content_map_refB27_NtNtCs6lm0jMM3zOD_9toml_edit2de5ErrorE0EB5U_EEBf_
FN:16,_RINvXs0_NvXNvNtNtCsbwBEBaEzfvW_11git_metrics6entity6config1__NtBb_12RuleAbsoluteNtNtCslI84mjRi2PN_5serde2de11Deserialize11deserializeNtB6_9___VisitorNtB1i_7Visitor9visit_mapQINtNtB1i_5value15MapDeserializerINtNtNtNtCs2ke5FKHNm4X_4core4iter8adapters3map3MapINtNtNtCs2wnU2autU56_5alloc3vec9into_iter8IntoIterTNtNtNtNtB1k_9___private2de7content7ContentB4V_EENCINvB4X_17visit_content_mapB27_NtNtCs6lm0jMM3zOD_9toml_edit2de5ErrorE0EB6d_EEBf_
FN:21,_RNvXNvXNvNtNtCsbwBEBaEzfvW_11git_metrics6entity6configs0_1__NtB7_12RuleRelativeNtNtCslI84mjRi2PN_5serde2de11Deserialize11deserializeNtB2_14___FieldVisitorNtB1h_7Visitor9expecting
FN:21,_RINvXNvXNvNtNtCsbwBEBaEzfvW_11git_metrics6entity6configs0_1__NtB8_12RuleRelativeNtNtCslI84mjRi2PN_5serde2de11Deserialize11deserializeNtB3_14___FieldVisitorNtB1i_7Visitor9visit_u64NtNtCs6lm0jMM3zOD_9toml_edit2de5ErrorEBc_
FN:21,_RINvXNvXNvNtNtCsbwBEBaEzfvW_11git_metrics6entity6configs0_1__NtB8_12RuleRelativeNtNtCslI84mjRi2PN_5serde2de11Deserialize11deserializeNtB3_14___FieldVisitorNtB1i_7Visitor9visit_strNtNtCs6lm0jMM3zOD_9toml_edit2de5ErrorEBc_
FN:21,_RINvXNvXNvNtNtCsbwBEBaEzfvW_11git_metrics6entity6configs0_1__NtB8_12RuleRelativeNtNtCslI84mjRi2PN_5serde2de11Deserialize11deserializeNtB3_14___FieldVisitorNtB1i_7Visitor11visit_bytesNtNtCs6lm0jMM3zOD_9toml_edit2de5ErrorEBc_
FN:21,_RINvXs_NvXNvNtNtCsbwBEBaEzfvW_11git_metrics6entity6configs0_1__NtBa_12RuleRelativeNtNtCslI84mjRi2PN_5serde2de11Deserialize11deserializeNtB5_7___FieldB1i_11deserializeINtNtNtNtB1m_9___private2de7content22ContentRefDeserializerNtNtCs6lm0jMM3zOD_9toml_edit2de5ErrorEEBe_
FN:21,_RNvXs0_NvXNvNtNtCsbwBEBaEzfvW_11git_metrics6entity6configs0_1__NtBa_12RuleRelativeNtNtCslI84mjRi2PN_5serde2de11Deserialize11deserializeNtB5_9___VisitorNtB1k_7Visitor9expecting
FN:21,_RINvXs0_NvXNvNtNtCsbwBEBaEzfvW_11git_metrics6entity6configs0_1__NtBb_12RuleRelativeNtNtCslI84mjRi2PN_5serde2de11Deserialize11deserializeNtB6_9___VisitorNtB1l_7Visitor9visit_seqQINtNtB1l_5value15SeqDeserializerINtNtNtNtCs2ke5FKHNm4X_4core4iter8adapters3map3MapINtNtNtB3u_5slice4iter4IterNtNtNtNtB1n_9___private2de7content7ContentENvMsk_B4C_INtB4C_22ContentRefDeserializerNtNtCs6lm0jMM3zOD_9toml_edit2de5ErrorE3newEB5W_EEBf_
FN:21,_RINvXs0_NvXNvNtNtCsbwBEBaEzfvW_11git_metrics6entity6configs0_1__NtBb_12RuleRelativeNtNtCslI84mjRi2PN_5serde2de11Deserialize11deserializeNtB6_9___VisitorNtB1l_7Visitor9visit_mapQINtNtB1l_5value15MapDeserializerINtNtNtNtCs2ke5FKHNm4X_4core4iter8adapters3map3MapINtNtNtB3u_5slice4iter4IterTNtNtNtNtB1n_9___private2de7content7ContentB4B_EENCINvB4D_21visit_content_map_refB2a_NtNtCs6lm0jMM3zOD_9toml_edit2de5ErrorE0EB5X_EEBf_
FN:33,_RNvXNvXNvNtNtCsbwBEBaEzfvW_11git_metrics6entity6configs4_1__NtB7_4RuleNtNtCslI84mjRi2PN_5serde2de11Deserialize11deserializeNtB2_14___FieldVisitorNtB18_7Visitor9expecting
FN:33,_RINvXNvXNvNtNtCsbwBEBaEzfvW_11git_metrics6entity6configs4_1__NtB8_4RuleNtNtCslI84mjRi2PN_5serde2de11Deserialize11deserializeNtB3_14___FieldVisitorNtB19_7Visitor9visit_strNtNtCs6lm0jMM3zOD_9toml_edit2de5ErrorEBc_
FN:33,_RINvXs_NvXNvNtNtCsbwBEBaEzfvW_11git_metrics6entity6configs4_1__NtBa_4RuleNtNtCslI84mjRi2PN_5serde2de11Deserialize11deserializeNtB5_7___FieldB19_11deserializeINtNtB1b_5value18StringDeserializerNtNtCs6lm0jMM3zOD_9toml_edit2de5ErrorEEBe_
FN:33,_RINvXs_NvXNvNtNtCsbwBEBaEzfvW_11git_metrics6entity6configs4_1__NtBa_4RuleNtNtCslI84mjRi2PN_5serde2de11Deserialize11deserializeNtB5_7___FieldB19_11deserializeNtNtNtCs6lm0jMM3zOD_9toml_edit2de5value17ValueDeserializerEBe_
FN:69,_RINvXNvXNvNtNtCsbwBEBaEzfvW_11git_metrics6entity6configs6_1__NtB8_12SubsetConfigNtNtCslI84mjRi2PN_5serde2de11Deserialize11deserializeNtB3_14___FieldVisitorNtB1i_7Visitor9visit_strNtNtCs6lm0jMM3zOD_9toml_edit2de5ErrorEBc_
FN:69,_RINvXs_NvXNvNtNtCsbwBEBaEzfvW_11git_metrics6entity6configs6_1__NtBa_12SubsetConfigNtNtCslI84mjRi2PN_5serde2de11Deserialize11deserializeNtB5_7___FieldB1i_11deserializeINtNtB1k_5value23BorrowedStrDeserializerNtNtCs6lm0jMM3zOD_9toml_edit2de5ErrorEEBe_
FN:69,_RINvXs_NvXNvNtNtCsbwBEBaEzfvW_11git_metrics6entity6configs6_1__NtBa_12SubsetConfigNtNtCslI84mjRi2PN_5serde2de11Deserialize11deserializeNtB5_7___FieldB1i_11deserializeNtNtNtCs6lm0jMM3zOD_9toml_edit2de3key15KeyDeserializerEBe_
FN:69,_RNvXs0_NvXNvNtNtCsbwBEBaEzfvW_11git_metrics6entity6configs6_1__NtBa_12SubsetConfigNtNtCslI84mjRi2PN_5serde2de11Deserialize11deserializeNtB5_9___VisitorNtB1k_7Visitor9expecting
FN:69,_RINvXs0_NvXNvNtNtCsbwBEBaEzfvW_11git_metrics6entity6configs6_1__NtBb_12SubsetConfigNtNtCslI84mjRi2PN_5serde2de11Deserialize11deserializeNtB6_9___VisitorNtB1l_7Visitor9visit_seqNtNtNtCs6lm0jMM3zOD_9toml_edit2de5array14ArraySeqAccessEBf_
FN:69,_RINvXs0_NvXNvNtNtCsbwBEBaEzfvW_11git_metrics6entity6configs6_1__NtBb_12SubsetConfigNtNtCslI84mjRi2PN_5serde2de11Deserialize11deserializeNtB6_9___VisitorNtB1l_7Visitor9visit_mapINtNtNtCs6lm0jMM3zOD_9toml_edit2de7spanned19SpannedDeserializerNtNtB2T_5value17ValueDeserializerEEBf_
FN:69,_RINvXs0_NvXNvNtNtCsbwBEBaEzfvW_11git_metrics6entity6configs6_1__NtBb_12SubsetConfigNtNtCslI84mjRi2PN_5serde2de11Deserialize11deserializeNtB6_9___VisitorNtB1l_7Visitor9visit_mapNtNtNtCs6lm0jMM3zOD_9toml_edit2de5table14TableMapAccessEBf_
FN:69,_RINvXs0_NvXNvNtNtCsbwBEBaEzfvW_11git_metrics6entity6configs6_1__NtBb_12SubsetConfigNtNtCslI84mjRi2PN_5serde2de11Deserialize11deserializeNtB6_9___VisitorNtB1l_7Visitor9visit_mapNtNtNtCs6lm0jMM3zOD_9toml_edit2de8datetime20DatetimeDeserializerEBf_
FN:85,_RINvXNvXNvNtNtCsbwBEBaEzfvW_11git_metrics6entity6configs8_1__NtB8_9UnitScaleNtNtCslI84mjRi2PN_5serde2de11Deserialize11deserializeNtB3_14___FieldVisitorNtB1e_7Visitor9visit_strNtNtCs6lm0jMM3zOD_9toml_edit2de5ErrorEBc_
FN:85,_RINvXs_NvXNvNtNtCsbwBEBaEzfvW_11git_metrics6entity6configs8_1__NtBa_9UnitScaleNtNtCslI84mjRi2PN_5serde2de11Deserialize11deserializeNtB5_7___FieldB1e_11deserializeINtNtB1g_5value15StrDeserializerNtNtCs6lm0jMM3zOD_9toml_edit2de5ErrorEEBe_
FN:85,_RINvXs_NvXNvNtNtCsbwBEBaEzfvW_11git_metrics6entity6configs8_1__NtBa_9UnitScaleNtNtCslI84mjRi2PN_5serde2de11Deserialize11deserializeNtB5_7___FieldB1e_11deserializeINtNtB1g_5value18StringDeserializerNtNtCs6lm0jMM3zOD_9toml_edit2de5ErrorEEBe_
FN:85,_RINvXs0_NvXNvNtNtCsbwBEBaEzfvW_11git_metrics6entity6configs8_1__NtBb_9UnitScaleNtNtCslI84mjRi2PN_5serde2de11Deserialize11deserializeNtB6_9___VisitorNtB1h_7Visitor10visit_enumINtNtB1h_5value18StringDeserializerNtNtCs6lm0jMM3zOD_9toml_edit2de5ErrorEEBf_
FN:85,_RINvXs0_NvXNvNtNtCsbwBEBaEzfvW_11git_metrics6entity6configs8_1__NtBb_9UnitScaleNtNtCslI84mjRi2PN_5serde2de11Deserialize11deserializeNtB6_9___VisitorNtB1h_7Visitor10visit_enumNtNtNtCs6lm0jMM3zOD_9toml_edit2de5table14TableMapAccessEBf_
FN:93,_RINvXNvXNvNtNtCsbwBEBaEzfvW_11git_metrics6entity6configsa_1__NtB8_4UnitNtNtCslI84mjRi2PN_5serde2de11Deserialize11deserializeNtB3_14___FieldVisitorNtB19_7Visitor9visit_strNtNtCs6lm0jMM3zOD_9toml_edit2de5ErrorEBc_
FN:93,_RINvXs_NvXNvNtNtCsbwBEBaEzfvW_11git_metrics6entity6configsa_1__NtBa_4UnitNtNtCslI84mjRi2PN_5serde2de11Deserialize11deserializeNtB5_7___FieldB19_11deserializeINtNtB1b_5value23BorrowedStrDeserializerNtNtCs6lm0jMM3zOD_9toml_edit2de5ErrorEEBe_
FN:93,_RINvXs_NvXNvNtNtCsbwBEBaEzfvW_11git_metrics6entity6configsa_1__NtBa_4UnitNtNtCslI84mjRi2PN_5serde2de11Deserialize11deserializeNtB5_7___FieldB19_11deserializeNtNtNtCs6lm0jMM3zOD_9toml_edit2de3key15KeyDeserializerEBe_
FN:93,_RNvXs0_NvXNvNtNtCsbwBEBaEzfvW_11git_metrics6entity6configsa_1__NtBa_4UnitNtNtCslI84mjRi2PN_5serde2de11Deserialize11deserializeNtB5_9___VisitorNtB1b_7Visitor9expecting
FN:93,_RINvXs0_NvXNvNtNtCsbwBEBaEzfvW_11git_metrics6entity6configsa_1__NtBb_4UnitNtNtCslI84mjRi2PN_5serde2de11Deserialize11deserializeNtB6_9___VisitorNtB1c_7Visitor9visit_seqNtNtNtCs6lm0jMM3zOD_9toml_edit2de5array14ArraySeqAccessEBf_
FN:93,_RINvXs0_NvXNvNtNtCsbwBEBaEzfvW_11git_metrics6entity6configsa_1__NtBb_4UnitNtNtCslI84mjRi2PN_5serde2de11Deserialize11deserializeNtB6_9___VisitorNtB1c_7Visitor9visit_mapINtNtNtCs6lm0jMM3zOD_9toml_edit2de7spanned19SpannedDeserializerNtNtB2K_5value17ValueDeserializerEEBf_
FN:93,_RINvXs0_NvXNvNtNtCsbwBEBaEzfvW_11git_metrics6entity6configsa_1__NtBb_4UnitNtNtCslI84mjRi2PN_5serde2de11Deserialize11deserializeNtB6_9___VisitorNtB1c_7Visitor9visit_mapNtNtNtCs6lm0jMM3zOD_9toml_edit2de5table14TableMapAccessEBf_
FN:93,_RINvXs0_NvXNvNtNtCsbwBEBaEzfvW_11git_metrics6entity6configsa_1__NtBb_4UnitNtNtCslI84mjRi2PN_5serde2de11Deserialize11deserializeNtB6_9___VisitorNtB1c_7Visitor9visit_mapNtNtNtCs6lm0jMM3zOD_9toml_edit2de8datetime20DatetimeDeserializerEBf_
FN:140,_RINvXNvXNvNtNtCsbwBEBaEzfvW_11git_metrics6entity6configsc_1__NtB8_12MetricConfigNtNtCslI84mjRi2PN_5serde2de11Deserialize11deserializeNtB3_14___FieldVisitorNtB1i_7Visitor9visit_strNtNtCs6lm0jMM3zOD_9toml_edit2de5ErrorEBc_
FN:140,_RINvXs_NvXNvNtNtCsbwBEBaEzfvW_11git_metrics6entity6configsc_1__NtBa_12MetricConfigNtNtCslI84mjRi2PN_5serde2de11Deserialize11deserializeNtB5_7___FieldB1i_11deserializeINtNtB1k_5value23BorrowedStrDeserializerNtNtCs6lm0jMM3zOD_9toml_edit2de5ErrorEEBe_
FN:140,_RINvXs_NvXNvNtNtCsbwBEBaEzfvW_11git_metrics6entity6configsc_1__NtBa_12MetricConfigNtNtCslI84mjRi2PN_5serde2de11Deserialize11deserializeNtB5_7___FieldB1i_11deserializeNtNtNtCs6lm0jMM3zOD_9toml_edit2de3key15KeyDeserializerEBe_
FN:140,_RNvXs0_NvXNvNtNtCsbwBEBaEzfvW_11git_metrics6entity6configsc_1__NtBa_12MetricConfigNtNtCslI84mjRi2PN_5serde2de11Deserialize11deserializeNtB5_9___VisitorNtB1k_7Visitor9expecting
FN:140,_RINvXs0_NvXNvNtNtCsbwBEBaEzfvW_11git_metrics6entity6configsc_1__NtBb_12MetricConfigNtNtCslI84mjRi2PN_5serde2de11Deserialize11deserializeNtB6_9___VisitorNtB1l_7Visitor9visit_seqNtNtNtCs6lm0jMM3zOD_9toml_edit2de5array14ArraySeqAccessEBf_
FN:140,_RINvXs0_NvXNvNtNtCsbwBEBaEzfvW_11git_metrics6entity6configsc_1__NtBb_12MetricConfigNtNtCslI84mjRi2PN_5serde2de11Deserialize11deserializeNtB6_9___VisitorNtB1l_7Visitor9visit_mapINtNtNtCs6lm0jMM3zOD_9toml_edit2de7spanned19SpannedDeserializerNtNtB2T_5value17ValueDeserializerEEBf_
FN:140,_RINvXs0_NvXNvNtNtCsbwBEBaEzfvW_11git_metrics6entity6configsc_1__NtBb_12MetricConfigNtNtCslI84mjRi2PN_5serde2de11Deserialize11deserializeNtB6_9___VisitorNtB1l_7Visitor9visit_mapNtNtNtCs6lm0jMM3zOD_9toml_edit2de5table14TableMapAccessEBf_
FN:140,_RINvXs0_NvXNvNtNtCsbwBEBaEzfvW_11git_metrics6entity6configsc_1__NtBb_12MetricConfigNtNtCslI84mjRi2PN_5serde2de11Deserialize11deserializeNtB6_9___VisitorNtB1l_7Visitor9visit_mapNtNtNtCs6lm0jMM3zOD_9toml_edit2de8datetime20DatetimeDeserializerEBf_
FN:159,_RINvXNvXNvNtNtCsbwBEBaEzfvW_11git_metrics6entity6configse_1__NtB8_6ConfigNtNtCslI84mjRi2PN_5serde2de11Deserialize11deserializeNtB3_14___FieldVisitorNtB1b_7Visitor9visit_strNtNtCs6lm0jMM3zOD_9toml_edit2de5ErrorEBc_
FN:159,_RINvXs_NvXNvNtNtCsbwBEBaEzfvW_11git_metrics6entity6configse_1__NtBa_6ConfigNtNtCslI84mjRi2PN_5serde2de11Deserialize11deserializeNtB5_7___FieldB1b_11deserializeINtNtB1d_5value23BorrowedStrDeserializerNtNtCs6lm0jMM3zOD_9toml_edit2de5ErrorEEBe_
FN:159,_RINvXs_NvXNvNtNtCsbwBEBaEzfvW_11git_metrics6entity6configse_1__NtBa_6ConfigNtNtCslI84mjRi2PN_5serde2de11Deserialize11deserializeNtB5_7___FieldB1b_11deserializeNtNtNtCs6lm0jMM3zOD_9toml_edit2de3key15KeyDeserializerEBe_
FN:159,_RNvXs0_NvXNvNtNtCsbwBEBaEzfvW_11git_metrics6entity6configse_1__NtBa_6ConfigNtNtCslI84mjRi2PN_5serde2de11Deserialize11deserializeNtB5_9___VisitorNtB1d_7Visitor9expecting
FN:159,_RINvXs0_NvXNvNtNtCsbwBEBaEzfvW_11git_metrics6entity6configse_1__NtBb_6ConfigNtNtCslI84mjRi2PN_5serde2de11Deserialize11deserializeNtB6_9___VisitorNtB1e_7Visitor9visit_seqNtNtNtCs6lm0jMM3zOD_9toml_edit2de5array14ArraySeqAccessEBf_
FN:159,_RINvXs0_NvXNvNtNtCsbwBEBaEzfvW_11git_metrics6entity6configse_1__NtBb_6ConfigNtNtCslI84mjRi2PN_5serde2de11Deserialize11deserializeNtB6_9___VisitorNtB1e_7Visitor9visit_mapINtNtNtCs6lm0jMM3zOD_9toml_edit2de7spanned19SpannedDeserializerNtNtB2M_5value17ValueDeserializerEEBf_
FN:159,_RINvXs0_NvXNvNtNtCsbwBEBaEzfvW_11git_metrics6entity6configse_1__NtBb_6ConfigNtNtCslI84mjRi2PN_5serde2de11Deserialize11deserializeNtB6_9___VisitorNtB1e_7Visitor9visit_mapNtNtNtCs6lm0jMM3zOD_9toml_edit2de5table14TableMapAccessEBf_
FN:159,_RINvXs0_NvXNvNtNtCsbwBEBaEzfvW_11git_metrics6entity6configse_1__NtBb_6ConfigNtNtCslI84mjRi2PN_5serde2de11Deserialize11deserializeNtB6_9___VisitorNtB1e_7Visitor9visit_mapNtNtNtCs6lm0jMM3zOD_9toml_edit2de8datetime20DatetimeDeserializerEBf_
FN:33,_RINvXNvXNvNtNtCsbwBEBaEzfvW_11git_metrics6entity6configs4_1__NtB8_4RuleNtNtCslI84mjRi2PN_5serde2de11Deserialize11deserializeNtB3_14___FieldVisitorNtB19_7Visitor9visit_u64pEBc_
FN:33,_RINvXNvXNvNtNtCsbwBEBaEzfvW_11git_metrics6entity6configs4_1__NtB8_4RuleNtNtCslI84mjRi2PN_5serde2de11Deserialize11deserializeNtB3_14___FieldVisitorNtB19_7Visitor11visit_bytespEBc_
FN:69,_RNvXNvXNvNtNtCsbwBEBaEzfvW_11git_metrics6entity6configs6_1__NtB7_12SubsetConfigNtNtCslI84mjRi2PN_5serde2de11Deserialize11deserializeNtB2_14___FieldVisitorNtB1h_7Visitor9expecting
FN:69,_RINvXNvXNvNtNtCsbwBEBaEzfvW_11git_metrics6entity6configs6_1__NtB8_12SubsetConfigNtNtCslI84mjRi2PN_5serde2de11Deserialize11deserializeNtB3_14___FieldVisitorNtB1i_7Visitor9visit_u64pEBc_
FN:69,_RINvXNvXNvNtNtCsbwBEBaEzfvW_11git_metrics6entity6configs6_1__NtB8_12SubsetConfigNtNtCslI84mjRi2PN_5serde2de11Deserialize11deserializeNtB3_14___FieldVisitorNtB1i_7Visitor11visit_bytespEBc_
FN:85,_RNvXNvXNvNtNtCsbwBEBaEzfvW_11git_metrics6entity6configs8_1__NtB7_9UnitScaleNtNtCslI84mjRi2PN_5serde2de11Deserialize11deserializeNtB2_14___FieldVisitorNtB1d_7Visitor9expecting
FN:85,_RINvXNvXNvNtNtCsbwBEBaEzfvW_11git_metrics6entity6configs8_1__NtB8_9UnitScaleNtNtCslI84mjRi2PN_5serde2de11Deserialize11deserializeNtB3_14___FieldVisitorNtB1e_7Visitor9visit_u64pEBc_
FN:85,_RINvXNvXNvNtNtCsbwBEBaEzfvW_11git_metrics6entity6configs8_1__NtB8_9UnitScaleNtNtCslI84mjRi2PN_5serde2de11Deserialize11deserializeNtB3_14___FieldVisitorNtB1e_7Visitor11visit_bytespEBc_
FN:85,_RNvXs0_NvXNvNtNtCsbwBEBaEzfvW_11git_metrics6entity6configs8_1__NtBa_9UnitScaleNtNtCslI84mjRi2PN_5serde2de11Deserialize11deserializeNtB5_9___VisitorNtB1g_7Visitor9expecting
FN:93,_RNvXNvXNvNtNtCsbwBEBaEzfvW_11git_metrics6entity6configsa_1__NtB7_4UnitNtNtCslI84mjRi2PN_5serde2de11Deserialize11deserializeNtB2_14___FieldVisitorNtB18_7Visitor9expecting
FN:93,_RINvXNvXNvNtNtCsbwBEBaEzfvW_11git_metrics6entity6configsa_1__NtB8_4UnitNtNtCslI84mjRi2PN_5serde2de11Deserialize11deserializeNtB3_14___FieldVisitorNtB19_7Visitor9visit_u64pEBc_
FN:93,_RINvXNvXNvNtNtCsbwBEBaEzfvW_11git_metrics6entity6configsa_1__NtB8_4UnitNtNtCslI84mjRi2PN_5serde2de11Deserialize11deserializeNtB3_14___FieldVisitorNtB19_7Visitor11visit_bytespEBc_
FN:140,_RNvXNvXNvNtNtCsbwBEBaEzfvW_11git_metrics6entity6configsc_1__NtB7_12MetricConfigNtNtCslI84mjRi2PN_5serde2de11Deserialize11deserializeNtB2_14___FieldVisitorNtB1h_7Visitor9expecting
FN:140,_RINvXNvXNvNtNtCsbwBEBaEzfvW_11git_metrics6entity6configsc_1__NtB8_12MetricConfigNtNtCslI84mjRi2PN_5serde2de11Deserialize11deserializeNtB3_14___FieldVisitorNtB1i_7Visitor9visit_u64pEBc_
FN:140,_RINvXNvXNvNtNtCsbwBEBaEzfvW_11git_metrics6entity6configsc_1__NtB8_12MetricConfigNtNtCslI84mjRi2PN_5serde2de11Deserialize11deserializeNtB3_14___FieldVisitorNtB1i_7Visitor11visit_bytespEBc_
FN:159,_RNvXNvXNvNtNtCsbwBEBaEzfvW_11git_metrics6entity6configse_1__NtB7_6ConfigNtNtCslI84mjRi2PN_5serde2de11Deserialize11deserializeNtB2_14___FieldVisitorNtB1a_7Visitor9expecting
FN:159,_RINvXNvXNvNtNtCsbwBEBaEzfvW_11git_metrics6entity6configse_1__NtB8_6ConfigNtNtCslI84mjRi2PN_5serde2de11Deserialize11deserializeNtB3_14___FieldVisitorNtB1b_7Visitor9visit_u64pEBc_
FN:159,_RINvXNvXNvNtNtCsbwBEBaEzfvW_11git_metrics6entity6configse_1__NtB8_6ConfigNtNtCslI84mjRi2PN_5serde2de11Deserialize11deserializeNtB3_14___FieldVisitorNtB1b_7Visitor11visit_bytespEBc_
FNDA:3,_RNvNtNtNtCsbwBEBaEzfvW_11git_metrics6entity6config5tests18should_deserialize
FNDA:1,_RNvNtNtNtCsbwBEBaEzfvW_11git_metrics6entity6config5testss_35should_deserialize_with_simple_name
FNDA:1,_RNvNtNtNtCsbwBEBaEzfvW_11git_metrics6entity6config5testss_43should_deserialize_with_name_containing_dot
FNDA:1,_RNvNtNtNtCsbwBEBaEzfvW_11git_metrics6entity6config5testss_45should_deserialize_with_relative_and_absolute
FNDA:71,_RNvNtNtCsbwBEBaEzfvW_11git_metrics6entity6config24undefined_unit_formatterB5_
FNDA:12,_RNvMNtNtCsbwBEBaEzfvW_11git_metrics6entity6configNtB2_4Rule3max
FNDA:5,_RNvMNtNtCsbwBEBaEzfvW_11git_metrics6entity6configNtB2_4Rule21max_absolute_increase
FNDA:9,_RNvMNtNtCsbwBEBaEzfvW_11git_metrics6entity6configNtB2_4Rule21max_relative_increase
FNDA:1,_RNvMNtNtCsbwBEBaEzfvW_11git_metrics6entity6configNtB2_4Rule3min
FNDA:1,_RNvMNtNtCsbwBEBaEzfvW_11git_metrics6entity6configNtB2_4Rule21max_absolute_decrease
FNDA:1,_RNvMNtNtCsbwBEBaEzfvW_11git_metrics6entity6configNtB2_4Rule21max_relative_decrease
FNDA:26,_RNvMs_NtNtCsbwBEBaEzfvW_11git_metrics6entity6configNtB4_12SubsetConfig7matches
FNDA:26,_RNCNvMs_NtNtCsbwBEBaEzfvW_11git_metrics6entity6configNtB6_12SubsetConfig7matches0Ba_
FNDA:25,_RNCNCNvMs_NtNtCsbwBEBaEzfvW_11git_metrics6entity6configNtB8_12SubsetConfig7matches00Bc_
FNDA:2,_RINvMs0_NtNtCsbwBEBaEzfvW_11git_metrics6entity6configNtB6_4Unit3newNtNtCs2wnU2autU56_5alloc6string6StringEBa_
FNDA:0,_RNCINvMs0_NtNtCsbwBEBaEzfvW_11git_metrics6entity6configNtB8_4Unit3newNtNtCs2wnU2autU56_5alloc6string6StringE0Bc_
FNDA:2,_RNvMs0_NtNtCsbwBEBaEzfvW_11git_metrics6entity6configNtB5_4Unit6binary
FNDA:2,_RINvMs0_NtNtCsbwBEBaEzfvW_11git_metrics6entity6configNtB6_4Unit11with_suffixReEBa_
FNDA:14,_RNvMs1_NtNtCsbwBEBaEzfvW_11git_metrics6entity6configNtB5_4Unit8formater
FNDA:2,_RNvMs2_NtNtCsbwBEBaEzfvW_11git_metrics6entity6configNtB5_12MetricConfig9with_unit
FNDA:2,_RINvMs3_NtNtCsbwBEBaEzfvW_11git_metrics6entity6configNtB6_6Config11with_metricReEBa_
FNDA:10,_RNvMs4_NtNtCsbwBEBaEzfvW_11git_metrics6entity6configNtB5_6Config9from_path
FNDA:26,_RNvMs4_NtNtCsbwBEBaEzfvW_11git_metrics6entity6configNtB5_6Config14from_root_path
FNDA:73,_RNvMs4_NtNtCsbwBEBaEzfvW_11git_metrics6entity6configNtB5_6Config9formatter
FNDA:13,_RNvXs5_NtNtCsbwBEBaEzfvW_11git_metrics6entity6configNtB5_6ConfigNtNtNtCs2ke5FKHNm4X_4core3str6traits7FromStr8from_str
FNDA:0,_RNCNvXs5_NtNtCsbwBEBaEzfvW_11git_metrics6entity6configNtB7_6ConfigNtNtNtCs2ke5FKHNm4X_4core3str6traits7FromStr8from_str0Bb_
FNDA:0,_RNvXNvXNvNtNtCsbwBEBaEzfvW_11git_metrics6entity6config1__NtB7_12RuleAbsoluteNtNtCslI84mjRi2PN_5serde2de11Deserialize11deserializeNtB2_14___FieldVisitorNtB1e_7Visitor9expecting
FNDA:0,_RINvXNvXNvNtNtCsbwBEBaEzfvW_11git_metrics6entity6config1__NtB8_12RuleAbsoluteNtNtCslI84mjRi2PN_5serde2de11Deserialize11deserializeNtB3_14___FieldVisitorNtB1f_7Visitor9visit_u64NtNtCs6lm0jMM3zOD_9toml_edit2de5ErrorEBc_
FNDA:43,_RINvXNvXNvNtNtCsbwBEBaEzfvW_11git_metrics6entity6config1__NtB8_12RuleAbsoluteNtNtCslI84mjRi2PN_5serde2de11Deserialize11deserializeNtB3_14___FieldVisitorNtB1f_7Visitor9visit_strNtNtCs6lm0jMM3zOD_9toml_edit2de5ErrorEBc_
FNDA:0,_RINvXNvXNvNtNtCsbwBEBaEzfvW_11git_metrics6entity6config1__NtB8_12RuleAbsoluteNtNtCslI84mjRi2PN_5serde2de11Deserialize11deserializeNtB3_14___FieldVisitorNtB1f_7Visitor11visit_bytesNtNtCs6lm0jMM3zOD_9toml_edit2de5ErrorEBc_
FNDA:26,_RINvXs_NvXNvNtNtCsbwBEBaEzfvW_11git_metrics6entity6config1__NtBa_12RuleAbsoluteNtNtCslI84mjRi2PN_5serde2de11Deserialize11deserializeNtB5_7___FieldB1f_11deserializeINtNtNtNtB1j_9___private2de7content19ContentDeserializerNtNtCs6lm0jMM3zOD_9toml_edit2de5ErrorEEBe_
FNDA:17,_RINvXs_NvXNvNtNtCsbwBEBaEzfvW_11git_metrics6entity6config1__NtBa_12RuleAbsoluteNtNtCslI84mjRi2PN_5serde2de11Deserialize11deserializeNtB5_7___FieldB1f_11deserializeINtNtNtNtB1j_9___private2de7content22ContentRefDeserializerNtNtCs6lm0jMM3zOD_9toml_edit2de5ErrorEEBe_
FNDA:0,_RNvXs0_NvXNvNtNtCsbwBEBaEzfvW_11git_metrics6entity6config1__NtBa_12RuleAbsoluteNtNtCslI84mjRi2PN_5serde2de11Deserialize11deserializeNtB5_9___VisitorNtB1h_7Visitor9expecting
FNDA:0,_RINvXs0_NvXNvNtNtCsbwBEBaEzfvW_11git_metrics6entity6config1__NtBb_12RuleAbsoluteNtNtCslI84mjRi2PN_5serde2de11Deserialize11deserializeNtB6_9___VisitorNtB1i_7Visitor9visit_seqQINtNtB1i_5value15SeqDeserializerINtNtNtNtCs2ke5FKHNm4X_4core4iter8adapters3map3MapINtNtNtB3r_5slice4iter4IterNtNtNtNtB1k_9___private2de7content7ContentENvMsk_B4z_INtB4z_22ContentRefDeserializerNtNtCs6lm0jMM3zOD_9toml_edit2de5ErrorE3newEB5T_EEBf_
FNDA:0,_RINvXs0_NvXNvNtNtCsbwBEBaEzfvW_11git_metrics6entity6config1__NtBb_12RuleAbsoluteNtNtCslI84mjRi2PN_5serde2de11Deserialize11deserializeNtB6_9___VisitorNtB1i_7Visitor9visit_seqQINtNtB1i_5value15SeqDeserializerINtNtNtNtCs2ke5FKHNm4X_4core4iter8adapters3map3MapINtNtNtCs2wnU2autU56_5alloc3vec9into_iter8IntoIterNtNtNtNtB1k_9___private2de7content7ContentENvMse_B4W_INtB4W_19ContentDeserializerNtNtCs6lm0jMM3zOD_9toml_edit2de5ErrorE3newEB6d_EEBf_
FNDA:17,_RINvXs0_NvXNvNtNtCsbwBEBaEzfvW_11git_metrics6entity6config1__NtBb_12RuleAbsoluteNtNtCslI84mjRi2PN_5serde2de11Deserialize11deserializeNtB6_9___VisitorNtB1i_7Visitor9visit_mapQINtNtB1i_5value15MapDeserializerINtNtNtNtCs2ke5FKHNm4X_4core4iter8adapters3map3MapINtNtNtB3r_5slice4iter4IterTNtNtNtNtB1k_9___private2de7content7ContentB4y_EENCINvB4A_21visit_content_map_refB27_NtNtCs6lm0jMM3zOD_9toml_edit2de5ErrorE0EB5U_EEBf_
FNDA:26,_RINvXs0_NvXNvNtNtCsbwBEBaEzfvW_11git_metrics6entity6config1__NtBb_12RuleAbsoluteNtNtCslI84mjRi2PN_5serde2de11Deserialize11deserializeNtB6_9___VisitorNtB1i_7Visitor9visit_mapQINtNtB1i_5value15MapDeserializerINtNtNtNtCs2ke5FKHNm4X_4core4iter8adapters3map3MapINtNtNtCs2wnU2autU56_5alloc3vec9into_iter8IntoIterTNtNtNtNtB1k_9___private2de7content7ContentB4V_EENCINvB4X_17visit_content_mapB27_NtNtCs6lm0jMM3zOD_9toml_edit2de5ErrorE0EB6d_EEBf_
FNDA:0,_RNvXNvXNvNtNtCsbwBEBaEzfvW_11git_metrics6entity6configs0_1__NtB7_12RuleRelativeNtNtCslI84mjRi2PN_5serde2de11Deserialize11deserializeNtB2_14___FieldVisitorNtB1h_7Visitor9expecting
FNDA:0,_RINvXNvXNvNtNtCsbwBEBaEzfvW_11git_metrics6entity6configs0_1__NtB8_12RuleRelativeNtNtCslI84mjRi2PN_5serde2de11Deserialize11deserializeNtB3_14___FieldVisitorNtB1i_7Visitor9visit_u64NtNtCs6lm0jMM3zOD_9toml_edit2de5ErrorEBc_
FNDA:15,_RINvXNvXNvNtNtCsbwBEBaEzfvW_11git_metrics6entity6configs0_1__NtB8_12RuleRelativeNtNtCslI84mjRi2PN_5serde2de11Deserialize11deserializeNtB3_14___FieldVisitorNtB1i_7Visitor9visit_strNtNtCs6lm0jMM3zOD_9toml_edit2de5ErrorEBc_
FNDA:0,_RINvXNvXNvNtNtCsbwBEBaEzfvW_11git_metrics6entity6configs0_1__NtB8_12RuleRelativeNtNtCslI84mjRi2PN_5serde2de11Deserialize11deserializeNtB3_14___FieldVisitorNtB1i_7Visitor11visit_bytesNtNtCs6lm0jMM3zOD_9toml_edit2de5ErrorEBc_
FNDA:15,_RINvXs_NvXNvNtNtCsbwBEBaEzfvW_11git_metrics6entity6configs0_1__NtBa_12RuleRelativeNtNtCslI84mjRi2PN_5serde2de11Deserialize11deserializeNtB5_7___FieldB1i_11deserializeINtNtNtNtB1m_9___private2de7content22ContentRefDeserializerNtNtCs6lm0jMM3zOD_9toml_edit2de5ErrorEEBe_
FNDA:0,_RNvXs0_NvXNvNtNtCsbwBEBaEzfvW_11git_metrics6entity6configs0_1__NtBa_12RuleRelativeNtNtCslI84mjRi2PN_5serde2de11Deserialize11deserializeNtB5_9___VisitorNtB1k_7Visitor9expecting
FNDA:0,_RINvXs0_NvXNvNtNtCsbwBEBaEzfvW_11git_metrics6entity6configs0_1__NtBb_12RuleRelativeNtNtCslI84mjRi2PN_5serde2de11Deserialize11deserializeNtB6_9___VisitorNtB1l_7Visitor9visit_seqQINtNtB1l_5value15SeqDeserializerINtNtNtNtCs2ke5FKHNm4X_4core4iter8adapters3map3MapINtNtNtB3u_5slice4iter4IterNtNtNtNtB1n_9___private2de7content7ContentENvMsk_B4C_INtB4C_22ContentRefDeserializerNtNtCs6lm0jMM3zOD_9toml_edit2de5ErrorE3newEB5W_EEBf_
FNDA:15,_RINvXs0_NvXNvNtNtCsbwBEBaEzfvW_11git_metrics6entity6configs0_1__NtBb_12RuleRelativeNtNtCslI84mjRi2PN_5serde2de11Deserialize11deserializeNtB6_9___VisitorNtB1l_7Visitor9visit_mapQINtNtB1l_5value15MapDeserializerINtNtNtNtCs2ke5FKHNm4X_4core4iter8adapters3map3MapINtNtNtB3u_5slice4iter4IterTNtNtNtNtB1n_9___private2de7content7ContentB4B_EENCINvB4D_21visit_content_map_refB2a_NtNtCs6lm0jMM3zOD_9toml_edit2de5ErrorE0EB5X_EEBf_
FNDA:0,_RNvXNvXNvNtNtCsbwBEBaEzfvW_11git_metrics6entity6configs4_1__NtB7_4RuleNtNtCslI84mjRi2PN_5serde2de11Deserialize11deserializeNtB2_14___FieldVisitorNtB18_7Visitor9expecting
FNDA:43,_RINvXNvXNvNtNtCsbwBEBaEzfvW_11git_metrics6entity6configs4_1__NtB8_4RuleNtNtCslI84mjRi2PN_5serde2de11Deserialize11deserializeNtB3_14___FieldVisitorNtB19_7Visitor9visit_strNtNtCs6lm0jMM3zOD_9toml_edit2de5ErrorEBc_
FNDA:0,_RINvXs_NvXNvNtNtCsbwBEBaEzfvW_11git_metrics6entity6configs4_1__NtBa_4RuleNtNtCslI84mjRi2PN_5serde2de11Deserialize11deserializeNtB5_7___FieldB19_11deserializeINtNtB1b_5value18StringDeserializerNtNtCs6lm0jMM3zOD_9toml_edit2de5ErrorEEBe_
FNDA:43,_RINvXs_NvXNvNtNtCsbwBEBaEzfvW_11git_metrics6entity6configs4_1__NtBa_4RuleNtNtCslI84mjRi2PN_5serde2de11Deserialize11deserializeNtB5_7___FieldB19_11deserializeNtNtNtCs6lm0jMM3zOD_9toml_edit2de5value17ValueDeserializerEBe_
FNDA:50,_RINvXNvXNvNtNtCsbwBEBaEzfvW_11git_metrics6entity6configs6_1__NtB8_12SubsetConfigNtNtCslI84mjRi2PN_5serde2de11Deserialize11deserializeNtB3_14___FieldVisitorNtB1i_7Visitor9visit_strNtNtCs6lm0jMM3zOD_9toml_edit2de5ErrorEBc_
FNDA:0,_RINvXs_NvXNvNtNtCsbwBEBaEzfvW_11git_metrics6entity6configs6_1__NtBa_12SubsetConfigNtNtCslI84mjRi2PN_5serde2de11Deserialize11deserializeNtB5_7___FieldB1i_11deserializeINtNtB1k_5value23BorrowedStrDeserializerNtNtCs6lm0jMM3zOD_9toml_edit2de5ErrorEEBe_
FNDA:50,_RINvXs_NvXNvNtNtCsbwBEBaEzfvW_11git_metrics6entity6configs6_1__NtBa_12SubsetConfigNtNtCslI84mjRi2PN_5serde2de11Deserialize11deserializeNtB5_7___FieldB1i_11deserializeNtNtNtCs6lm0jMM3zOD_9toml_edit2de3key15KeyDeserializerEBe_
FNDA:0,_RNvXs0_NvXNvNtNtCsbwBEBaEzfvW_11git_metrics6entity6configs6_1__NtBa_12SubsetConfigNtNtCslI84mjRi2PN_5serde2de11Deserialize11deserializeNtB5_9___VisitorNtB1k_7Visitor9expecting
FNDA:0,_RINvXs0_NvXNvNtNtCsbwBEBaEzfvW_11git_metrics6entity6configs6_1__NtBb_12SubsetConfigNtNtCslI84mjRi2PN_5serde2de11Deserialize11deserializeNtB6_9___VisitorNtB1l_7Visitor9visit_seqNtNtNtCs6lm0jMM3zOD_9toml_edit2de5array14ArraySeqAccessEBf_
FNDA:0,_RINvXs0_NvXNvNtNtCsbwBEBaEzfvW_11git_metrics6entity6configs6_1__NtBb_12SubsetConfigNtNtCslI84mjRi2PN_5serde2de11Deserialize11deserializeNtB6_9___VisitorNtB1l_7Visitor9visit_mapINtNtNtCs6lm0jMM3zOD_9toml_edit2de7spanned19SpannedDeserializerNtNtB2T_5value17ValueDeserializerEEBf_
FNDA:17,_RINvXs0_NvXNvNtNtCsbwBEBaEzfvW_11git_metrics6entity6configs6_1__NtBb_12SubsetConfigNtNtCslI84mjRi2PN_5serde2de11Deserialize11deserializeNtB6_9___VisitorNtB1l_7Visitor9visit_mapNtNtNtCs6lm0jMM3zOD_9toml_edit2de5table14TableMapAccessEBf_
FNDA:0,_RINvXs0_NvXNvNtNtCsbwBEBaEzfvW_11git_metrics6entity6configs6_1__NtBb_12SubsetConfigNtNtCslI84mjRi2PN_5serde2de11Deserialize11deserializeNtB6_9___VisitorNtB1l_7Visitor9visit_mapNtNtNtCs6lm0jMM3zOD_9toml_edit2de8datetime20DatetimeDeserializerEBf_
FNDA:0,_RINvXNvXNvNtNtCsbwBEBaEzfvW_11git_metrics6entity6configs8_1__NtB8_9UnitScaleNtNtCslI84mjRi2PN_5serde2de11Deserialize11deserializeNtB3_14___FieldVisitorNtB1e_7Visitor9visit_strNtNtCs6lm0jMM3zOD_9toml_edit2de5ErrorEBc_
FNDA:0,_RINvXs_NvXNvNtNtCsbwBEBaEzfvW_11git_metrics6entity6configs8_1__NtBa_9UnitScaleNtNtCslI84mjRi2PN_5serde2de11Deserialize11deserializeNtB5_7___FieldB1e_11deserializeINtNtB1g_5value15StrDeserializerNtNtCs6lm0jMM3zOD_9toml_edit2de5ErrorEEBe_
FNDA:0,_RINvXs_NvXNvNtNtCsbwBEBaEzfvW_11git_metrics6entity6configs8_1__NtBa_9UnitScaleNtNtCslI84mjRi2PN_5serde2de11Deserialize11deserializeNtB5_7___FieldB1e_11deserializeINtNtB1g_5value18StringDeserializerNtNtCs6lm0jMM3zOD_9toml_edit2de5ErrorEEBe_
FNDA:0,_RINvXs0_NvXNvNtNtCsbwBEBaEzfvW_11git_metrics6entity6configs8_1__NtBb_9UnitScaleNtNtCslI84mjRi2PN_5serde2de11Deserialize11deserializeNtB6_9___VisitorNtB1h_7Visitor10visit_enumINtNtB1h_5value18StringDeserializerNtNtCs6lm0jMM3zOD_9toml_edit2de5ErrorEEBf_
FNDA:0,_RINvXs0_NvXNvNtNtCsbwBEBaEzfvW_11git_metrics6entity6configs8_1__NtBb_9UnitScaleNtNtCslI84mjRi2PN_5serde2de11Deserialize11deserializeNtB6_9___VisitorNtB1h_7Visitor10visit_enumNtNtNtCs6lm0jMM3zOD_9toml_edit2de5table14TableMapAccessEBf_
FNDA:0,_RINvXNvXNvNtNtCsbwBEBaEzfvW_11git_metrics6entity6configsa_1__NtB8_4UnitNtNtCslI84mjRi2PN_5serde2de11Deserialize11deserializeNtB3_14___FieldVisitorNtB19_7Visitor9visit_strNtNtCs6lm0jMM3zOD_9toml_edit2de5ErrorEBc_
FNDA:0,_RINvXs_NvXNvNtNtCsbwBEBaEzfvW_11git_metrics6entity6configsa_1__NtBa_4UnitNtNtCslI84mjRi2PN_5serde2de11Deserialize11deserializeNtB5_7___FieldB19_11deserializeINtNtB1b_5value23BorrowedStrDeserializerNtNtCs6lm0jMM3zOD_9toml_edit2de5ErrorEEBe_
FNDA:0,_RINvXs_NvXNvNtNtCsbwBEBaEzfvW_11git_metrics6entity6configsa_1__NtBa_4UnitNtNtCslI84mjRi2PN_5serde2de11Deserialize11deserializeNtB5_7___FieldB19_11deserializeNtNtNtCs6lm0jMM3zOD_9toml_edit2de3key15KeyDeserializerEBe_
FNDA:0,_RNvXs0_NvXNvNtNtCsbwBEBaEzfvW_11git_metrics6entity6configsa_1__NtBa_4UnitNtNtCslI84mjRi2PN_5serde2de11Deserialize11deserializeNtB5_9___VisitorNtB1b_7Visitor9expecting
FNDA:0,_RINvXs0_NvXNvNtNtCsbwBEBaEzfvW_11git_metrics6entity6configsa_1__NtBb_4UnitNtNtCslI84mjRi2PN_5serde2de11Deserialize11deserializeNtB6_9___VisitorNtB1c_7Visitor9visit_seqNtNtNtCs6lm0jMM3zOD_9toml_edit2de5array14ArraySeqAccessEBf_
FNDA:0,_RINvXs0_NvXNvNtNtCsbwBEBaEzfvW_11git_metrics6entity6configsa_1__NtBb_4UnitNtNtCslI84mjRi2PN_5serde2de11Deserialize11deserializeNtB6_9___VisitorNtB1c_7Visitor9visit_mapINtNtNtCs6lm0jMM3zOD_9toml_edit2de7spanned19SpannedDeserializerNtNtB2K_5value17ValueDeserializerEEBf_
FNDA:0,_RINvXs0_NvXNvNtNtCsbwBEBaEzfvW_11git_metrics6entity6configsa_1__NtBb_4UnitNtNtCslI84mjRi2PN_5serde2de11Deserialize11deserializeNtB6_9___VisitorNtB1c_7Visitor9visit_mapNtNtNtCs6lm0jMM3zOD_9toml_edit2de5table14TableMapAccessEBf_
FNDA:0,_RINvXs0_NvXNvNtNtCsbwBEBaEzfvW_11git_metrics6entity6configsa_1__NtBb_4UnitNtNtCslI84mjRi2PN_5serde2de11Deserialize11deserializeNtB6_9___VisitorNtB1c_7Visitor9visit_mapNtNtNtCs6lm0jMM3zOD_9toml_edit2de8datetime20DatetimeDeserializerEBf_
FNDA:31,_RINvXNvXNvNtNtCsbwBEBaEzfvW_11git_metrics6entity6configsc_1__NtB8_12MetricConfigNtNtCslI84mjRi2PN_5serde2de11Deserialize11deserializeNtB3_14___FieldVisitorNtB1i_7Visitor9visit_strNtNtCs6lm0jMM3zOD_9toml_edit2de5ErrorEBc_
FNDA:0,_RINvXs_NvXNvNtNtCsbwBEBaEzfvW_11git_metrics6entity6configsc_1__NtBa_12MetricConfigNtNtCslI84mjRi2PN_5serde2de11Deserialize11deserializeNtB5_7___FieldB1i_11deserializeINtNtB1k_5value23BorrowedStrDeserializerNtNtCs6lm0jMM3zOD_9toml_edit2de5ErrorEEBe_
FNDA:31,_RINvXs_NvXNvNtNtCsbwBEBaEzfvW_11git_metrics6entity6configsc_1__NtBa_12MetricConfigNtNtCslI84mjRi2PN_5serde2de11Deserialize11deserializeNtB5_7___FieldB1i_11deserializeNtNtNtCs6lm0jMM3zOD_9toml_edit2de3key15KeyDeserializerEBe_
FNDA:0,_RNvXs0_NvXNvNtNtCsbwBEBaEzfvW_11git_metrics6entity6configsc_1__NtBa_12MetricConfigNtNtCslI84mjRi2PN_5serde2de11Deserialize11deserializeNtB5_9___VisitorNtB1k_7Visitor9expecting
FNDA:0,_RINvXs0_NvXNvNtNtCsbwBEBaEzfvW_11git_metrics6entity6configsc_1__NtBb_12MetricConfigNtNtCslI84mjRi2PN_5serde2de11Deserialize11deserializeNtB6_9___VisitorNtB1l_7Visitor9visit_seqNtNtNtCs6lm0jMM3zOD_9toml_edit2de5array14ArraySeqAccessEBf_
FNDA:0,_RINvXs0_NvXNvNtNtCsbwBEBaEzfvW_11git_metrics6entity6configsc_1__NtBb_12MetricConfigNtNtCslI84mjRi2PN_5serde2de11Deserialize11deserializeNtB6_9___VisitorNtB1l_7Visitor9visit_mapINtNtNtCs6lm0jMM3zOD_9toml_edit2de7spanned19SpannedDeserializerNtNtB2T_5value17ValueDeserializerEEBf_
FNDA:14,_RINvXs0_NvXNvNtNtCsbwBEBaEzfvW_11git_metrics6entity6configsc_1__NtBb_12MetricConfigNtNtCslI84mjRi2PN_5serde2de11Deserialize11deserializeNtB6_9___VisitorNtB1l_7Visitor9visit_mapNtNtNtCs6lm0jMM3zOD_9toml_edit2de5table14TableMapAccessEBf_
FNDA:0,_RINvXs0_NvXNvNtNtCsbwBEBaEzfvW_11git_metrics6entity6configsc_1__NtBb_12MetricConfigNtNtCslI84mjRi2PN_5serde2de11Deserialize11deserializeNtB6_9___VisitorNtB1l_7Visitor9visit_mapNtNtNtCs6lm0jMM3zOD_9toml_edit2de8datetime20DatetimeDeserializerEBf_
FNDA:13,_RINvXNvXNvNtNtCsbwBEBaEzfvW_11git_metrics6entity6configse_1__NtB8_6ConfigNtNtCslI84mjRi2PN_5serde2de11Deserialize11deserializeNtB3_14___FieldVisitorNtB1b_7Visitor9visit_strNtNtCs6lm0jMM3zOD_9toml_edit2de5ErrorEBc_
FNDA:0,_RINvXs_NvXNvNtNtCsbwBEBaEzfvW_11git_metrics6entity6configse_1__NtBa_6ConfigNtNtCslI84mjRi2PN_5serde2de11Deserialize11deserializeNtB5_7___FieldB1b_11deserializeINtNtB1d_5value23BorrowedStrDeserializerNtNtCs6lm0jMM3zOD_9toml_edit2de5ErrorEEBe_
FNDA:13,_RINvXs_NvXNvNtNtCsbwBEBaEzfvW_11git_metrics6entity6configse_1__NtBa_6ConfigNtNtCslI84mjRi2PN_5serde2de11Deserialize11deserializeNtB5_7___FieldB1b_11deserializeNtNtNtCs6lm0jMM3zOD_9toml_edit2de3key15KeyDeserializerEBe_
FNDA:0,_RNvXs0_NvXNvNtNtCsbwBEBaEzfvW_11git_metrics6entity6configse_1__NtBa_6ConfigNtNtCslI84mjRi2PN_5serde2de11Deserialize11deserializeNtB5_9___VisitorNtB1d_7Visitor9expecting
FNDA:0,_RINvXs0_NvXNvNtNtCsbwBEBaEzfvW_11git_metrics6entity6configse_1__NtBb_6ConfigNtNtCslI84mjRi2PN_5serde2de11Deserialize11deserializeNtB6_9___VisitorNtB1e_7Visitor9visit_seqNtNtNtCs6lm0jMM3zOD_9toml_edit2de5array14ArraySeqAccessEBf_
FNDA:0,_RINvXs0_NvXNvNtNtCsbwBEBaEzfvW_11git_metrics6entity6configse_1__NtBb_6ConfigNtNtCslI84mjRi2PN_5serde2de11Deserialize11deserializeNtB6_9___VisitorNtB1e_7Visitor9visit_mapINtNtNtCs6lm0jMM3zOD_9toml_edit2de7spanned19SpannedDeserializerNtNtB2M_5value17ValueDeserializerEEBf_
FNDA:13,_RINvXs0_NvXNvNtNtCsbwBEBaEzfvW_11git_metrics6entity6configse_1__NtBb_6ConfigNtNtCslI84mjRi2PN_5serde2de11Deserialize11deserializeNtB6_9___VisitorNtB1e_7Visitor9visit_mapNtNtNtCs6lm0jMM3zOD_9toml_edit2de5table14TableMapAccessEBf_
FNDA:0,_RINvXs0_NvXNvNtNtCsbwBEBaEzfvW_11git_metrics6entity6configse_1__NtBb_6ConfigNtNtCslI84mjRi2PN_5serde2de11Deserialize11deserializeNtB6_9___VisitorNtB1e_7Visitor9visit_mapNtNtNtCs6lm0jMM3zOD_9toml_edit2de8datetime20DatetimeDeserializerEBf_
FNDA:0,_RINvXNvXNvNtNtCsbwBEBaEzfvW_11git_metrics6entity6configs4_1__NtB8_4RuleNtNtCslI84mjRi2PN_5serde2de11Deserialize11deserializeNtB3_14___FieldVisitorNtB19_7Visitor9visit_u64pEBc_
FNDA:0,_RINvXNvXNvNtNtCsbwBEBaEzfvW_11git_metrics6entity6configs4_1__NtB8_4RuleNtNtCslI84mjRi2PN_5serde2de11Deserialize11deserializeNtB3_14___FieldVisitorNtB19_7Visitor11visit_bytespEBc_
FNDA:0,_RNvXNvXNvNtNtCsbwBEBaEzfvW_11git_metrics6entity6configs6_1__NtB7_12SubsetConfigNtNtCslI84mjRi2PN_5serde2de11Deserialize11deserializeNtB2_14___FieldVisitorNtB1h_7Visitor9expecting
FNDA:0,_RINvXNvXNvNtNtCsbwBEBaEzfvW_11git_metrics6entity6configs6_1__NtB8_12SubsetConfigNtNtCslI84mjRi2PN_5serde2de11Deserialize11deserializeNtB3_14___FieldVisitorNtB1i_7Visitor9visit_u64pEBc_
FNDA:0,_RINvXNvXNvNtNtCsbwBEBaEzfvW_11git_metrics6entity6configs6_1__NtB8_12SubsetConfigNtNtCslI84mjRi2PN_5serde2de11Deserialize11deserializeNtB3_14___FieldVisitorNtB1i_7Visitor11visit_bytespEBc_
FNDA:0,_RNvXNvXNvNtNtCsbwBEBaEzfvW_11git_metrics6entity6configs8_1__NtB7_9UnitScaleNtNtCslI84mjRi2PN_5serde2de11Deserialize11deserializeNtB2_14___FieldVisitorNtB1d_7Visitor9expecting
FNDA:0,_RINvXNvXNvNtNtCsbwBEBaEzfvW_11git_metrics6entity6configs8_1__NtB8_9UnitScaleNtNtCslI84mjRi2PN_5serde2de11Deserialize11deserializeNtB3_14___FieldVisitorNtB1e_7Visitor9visit_u64pEBc_
FNDA:0,_RINvXNvXNvNtNtCsbwBEBaEzfvW_11git_metrics6entity6configs8_1__NtB8_9UnitScaleNtNtCslI84mjRi2PN_5serde2de11Deserialize11deserializeNtB3_14___FieldVisitorNtB1e_7Visitor11visit_bytespEBc_
FNDA:0,_RNvXs0_NvXNvNtNtCsbwBEBaEzfvW_11git_metrics6entity6configs8_1__NtBa_9UnitScaleNtNtCslI84mjRi2PN_5serde2de11Deserialize11deserializeNtB5_9___VisitorNtB1g_7Visitor9expecting
FNDA:0,_RNvXNvXNvNtNtCsbwBEBaEzfvW_11git_metrics6entity6configsa_1__NtB7_4UnitNtNtCslI84mjRi2PN_5serde2de11Deserialize11deserializeNtB2_14___FieldVisitorNtB18_7Visitor9expecting
FNDA:0,_RINvXNvXNvNtNtCsbwBEBaEzfvW_11git_metrics6entity6configsa_1__NtB8_4UnitNtNtCslI84mjRi2PN_5serde2de11Deserialize11deserializeNtB3_14___FieldVisitorNtB19_7Visitor9visit_u64pEBc_
FNDA:0,_RINvXNvXNvNtNtCsbwBEBaEzfvW_11git_metrics6entity6configsa_1__NtB8_4UnitNtNtCslI84mjRi2PN_5serde2de11Deserialize11deserializeNtB3_14___FieldVisitorNtB19_7Visitor11visit_bytespEBc_
FNDA:0,_RNvXNvXNvNtNtCsbwBEBaEzfvW_11git_metrics6entity6configsc_1__NtB7_12MetricConfigNtNtCslI84mjRi2PN_5serde2de11Deserialize11deserializeNtB2_14___FieldVisitorNtB1h_7Visitor9expecting
FNDA:0,_RINvXNvXNvNtNtCsbwBEBaEzfvW_11git_metrics6entity6configsc_1__NtB8_12MetricConfigNtNtCslI84mjRi2PN_5serde2de11Deserialize11deserializeNtB3_14___FieldVisitorNtB1i_7Visitor9visit_u64pEBc_
FNDA:0,_RINvXNvXNvNtNtCsbwBEBaEzfvW_11git_metrics6entity6configsc_1__NtB8_12MetricConfigNtNtCslI84mjRi2PN_5serde2de11Deserialize11deserializeNtB3_14___FieldVisitorNtB1i_7Visitor11visit_bytespEBc_
FNDA:0,_RNvXNvXNvNtNtCsbwBEBaEzfvW_11git_metrics6entity6configse_1__NtB7_6ConfigNtNtCslI84mjRi2PN_5serde2de11Deserialize11deserializeNtB2_14___FieldVisitorNtB1a_7Visitor9expecting
FNDA:0,_RINvXNvXNvNtNtCsbwBEBaEzfvW_11git_metrics6entity6configse_1__NtB8_6ConfigNtNtCslI84mjRi2PN_5serde2de11Deserialize11deserializeNtB3_14___FieldVisitorNtB1b_7Visitor9visit_u64pEBc_
FNDA:0,_RINvXNvXNvNtNtCsbwBEBaEzfvW_11git_metrics6entity6configse_1__NtB8_6ConfigNtNtCslI84mjRi2PN_5serde2de11Deserialize11deserializeNtB3_14___FieldVisitorNtB1b_7Visitor11visit_bytespEBc_
FNF:34
FNH:30
DA:12,71
DA:13,71
DA:14,71
DA:16,86
DA:21,30
DA:33,43
DA:44,12
DA:45,12
DA:46,12
DA:48,5
DA:49,5
DA:50,5
DA:52,9
DA:53,9
DA:54,9
DA:56,1
DA:57,1
DA:58,1
DA:60,1
DA:61,1
DA:62,1
DA:64,1
DA:65,1
DA:66,1
DA:69,67
DA:78,26
DA:79,26
DA:80,26
DA:81,26
DA:82,26
DA:85,0
DA:93,0
DA:105,2
DA:106,2
DA:107,2
DA:108,2
DA:109,2
DA:110,2
DA:111,2
DA:113,2
DA:114,2
DA:115,2
DA:117,2
DA:118,2
DA:119,2
DA:120,2
DA:124,14
DA:125,14
DA:126,0
DA:127,2
DA:128,12
DA:130,14
DA:131,2
DA:132,12
DA:133,14
DA:134,0
DA:135,14
DA:136,14
DA:137,14
DA:140,45
DA:153,2
DA:154,2
DA:155,2
DA:156,2
DA:159,26
DA:167,2
DA:168,2
DA:169,2
DA:170,2
DA:174,10
DA:175,10
DA:177,10
DA:178,10
DA:180,26
DA:181,26
DA:182,26
DA:183,4
DA:185,22
DA:187,26
DA:189,73
DA:190,73
DA:191,14
DA:193,59
DA:195,73
DA:201,13
DA:202,13
DA:203,13
DA:204,13
DA:205,13
DA:212,3
DA:213,3
DA:214,7
DA:215,4
DA:216,4
DA:217,0
DA:220,3
DA:223,1
DA:224,1
DA:225,1
DA:226,1
DA:227,1
DA:228,1
DA:229,1
DA:230,1
DA:233,1
DA:234,1
DA:235,1
DA:236,1
DA:237,1
DA:238,1
DA:239,1
DA:240,1
DA:241,1
DA:242,1
DA:243,1
DA:246,1
DA:247,1
DA:248,1
DA:249,1
DA:250,1
DA:251,1
DA:252,1
DA:253,1
BRF:0
BRH:0
LF:127
LH:120
end_of_record
SF:/code/git-metrics/src/entity/difference.rs
FN:12,_RNvMNtNtCsbwBEBaEzfvW_11git_metrics6entity10differenceNtB2_5Delta3new
FN:43,_RNvMs_NtNtCsbwBEBaEzfvW_11git_metrics6entity10differenceNtB4_10Comparison8matchingB8_
FN:53,_RNvMs0_NtNtCsbwBEBaEzfvW_11git_metrics6entity10differenceNtB5_10Comparison11has_current
FN:57,_RNvMs0_NtNtCsbwBEBaEzfvW_11git_metrics6entity10differenceNtB5_10Comparison7created
FN:61,_RNvMs0_NtNtCsbwBEBaEzfvW_11git_metrics6entity10differenceNtB5_10Comparison3new
FN:82,_RNvMs1_NtNtCsbwBEBaEzfvW_11git_metrics6entity10differenceNtB5_10MetricDiff3new
FN:90,_RNvMs2_NtNtCsbwBEBaEzfvW_11git_metrics6entity10differenceNtB5_14MetricDiffList3new
FN:93,_RNCNvMs2_NtNtCsbwBEBaEzfvW_11git_metrics6entity10differenceNtB7_14MetricDiffList3new0Bb_
FN:108,_RNvMs2_NtNtCsbwBEBaEzfvW_11git_metrics6entity10differenceNtB5_14MetricDiffList14remove_missing
FN:112,_RNCNvMs2_NtNtCsbwBEBaEzfvW_11git_metrics6entity10differenceNtB7_14MetricDiffList14remove_missing0Bb_
FN:117,_RNvMs2_NtNtCsbwBEBaEzfvW_11git_metrics6entity10differenceNtB5_14MetricDiffList5inner
FN:121,_RNvMs2_NtNtCsbwBEBaEzfvW_11git_metrics6entity10differenceNtB5_14MetricDiffList10into_inner
FNDA:76,_RNvMNtNtCsbwBEBaEzfvW_11git_metrics6entity10differenceNtB2_5Delta3new
FNDA:17,_RNvMs_NtNtCsbwBEBaEzfvW_11git_metrics6entity10differenceNtB4_10Comparison8matchingB8_
FNDA:41,_RNvMs0_NtNtCsbwBEBaEzfvW_11git_metrics6entity10differenceNtB5_10Comparison11has_current
FNDA:9,_RNvMs0_NtNtCsbwBEBaEzfvW_11git_metrics6entity10differenceNtB5_10Comparison7created
FNDA:67,_RNvMs0_NtNtCsbwBEBaEzfvW_11git_metrics6entity10differenceNtB5_10Comparison3new
FNDA:20,_RNvMs1_NtNtCsbwBEBaEzfvW_11git_metrics6entity10differenceNtB5_10MetricDiff3new
FNDA:16,_RNvMs2_NtNtCsbwBEBaEzfvW_11git_metrics6entity10differenceNtB5_14MetricDiffList3new
FNDA:42,_RNCNvMs2_NtNtCsbwBEBaEzfvW_11git_metrics6entity10differenceNtB7_14MetricDiffList3new0Bb_
FNDA:15,_RNvMs2_NtNtCsbwBEBaEzfvW_11git_metrics6entity10differenceNtB5_14MetricDiffList14remove_missing
FNDA:41,_RNCNvMs2_NtNtCsbwBEBaEzfvW_11git_metrics6entity10differenceNtB7_14MetricDiffList14remove_missing0Bb_
FNDA:10,_RNvMs2_NtNtCsbwBEBaEzfvW_11git_metrics6entity10differenceNtB5_14MetricDiffList5inner
FNDA:6,_RNvMs2_NtNtCsbwBEBaEzfvW_11git_metrics6entity10differenceNtB5_14MetricDiffList10into_inner
FNF:12
FNH:12
DA:12,76
DA:13,76
DA:14,76
DA:15,9
DA:17,67
DA:20,76
DA:21,76
DA:43,17
DA:44,17
DA:45,17
DA:46,17
DA:47,17
DA:48,17
DA:49,17
DA:53,41
DA:54,41
DA:55,41
DA:57,9
DA:58,9
DA:59,9
DA:61,67
DA:62,67
DA:63,59
DA:64,59
DA:65,59
DA:66,59
DA:67,59
DA:69,8
DA:71,67
DA:82,20
DA:83,20
DA:84,20
DA:90,16
DA:91,16
DA:92,44
DA:93,44
DA:94,44
DA:95,44
DA:96,44
DA:97,44
DA:98,44
DA:99,16
DA:100,0
DA:101,0
DA:102,0
DA:103,0
DA:104,0
DA:105,16
DA:106,16
DA:108,15
DA:109,15
DA:110,15
DA:111,15
DA:112,41
DA:113,15
DA:114,15
DA:115,15
DA:117,10
DA:118,10
DA:119,10
DA:121,6
DA:122,6
DA:123,6
BRF:0
BRH:0
LF:65
LH:60
end_of_record
SF:/code/git-metrics/src/entity/metric.rs
FN:12,_RNvXNtNtCsbwBEBaEzfvW_11git_metrics6entity6metricNtB2_19MetricStackIteratorNtNtNtNtCs2ke5FKHNm4X_4core4iter6traits8iterator8Iterator4next
FN:15,_RNCNvXNtNtCsbwBEBaEzfvW_11git_metrics6entity6metricNtB4_19MetricStackIteratorNtNtNtNtCs2ke5FKHNm4X_4core4iter6traits8iterator8Iterator4next0B8_
FN:26,_RINvMs_NtNtCsbwBEBaEzfvW_11git_metrics6entity6metricNtB5_11MetricStack9from_iterINtNtNtCs2wnU2autU56_5alloc3vec9into_iter8IntoIterNtB5_6MetricEEB9_
FN:28,_RNCINvMs_NtNtCsbwBEBaEzfvW_11git_metrics6entity6metricNtB7_11MetricStack9from_iterINtNtNtCs2wnU2autU56_5alloc3vec9into_iter8IntoIterNtB7_6MetricEE0Bb_
FN:32,_RNvMs_NtNtCsbwBEBaEzfvW_11git_metrics6entity6metricNtB4_11MetricStack6extend
FN:36,_RNvMs_NtNtCsbwBEBaEzfvW_11git_metrics6entity6metricNtB4_11MetricStack12remove_entry
FN:40,_RNvMs_NtNtCsbwBEBaEzfvW_11git_metrics6entity6metricNtB4_11MetricStack11with_change
FN:55,_RINvMs_NtNtCsbwBEBaEzfvW_11git_metrics6entity6metricNtB5_11MetricStack12with_changesINtNtNtCs2wnU2autU56_5alloc3vec9into_iter8IntoIterNtB5_12MetricChangeEEB9_
FN:56,_RNCINvMs_NtNtCsbwBEBaEzfvW_11git_metrics6entity6metricNtB7_11MetricStack12with_changesINtNtNtCs2wnU2autU56_5alloc3vec9into_iter8IntoIterNtB7_12MetricChangeEE0Bb_
FN:59,_RNvMs_NtNtCsbwBEBaEzfvW_11git_metrics6entity6metricNtB4_11MetricStack16into_metric_iter
FN:65,_RNvMs_NtNtCsbwBEBaEzfvW_11git_metrics6entity6metricNtB4_11MetricStack10into_inner
FN:69,_RNvMs_NtNtCsbwBEBaEzfvW_11git_metrics6entity6metricNtB4_11MetricStack8into_vec
FN:73,_RNvMs_NtNtCsbwBEBaEzfvW_11git_metrics6entity6metricNtB4_11MetricStack2at
FN:76,_RNCNvMs_NtNtCsbwBEBaEzfvW_11git_metrics6entity6metricNtB6_11MetricStack2at0Ba_
FN:79,_RNvMs_NtNtCsbwBEBaEzfvW_11git_metrics6entity6metricNtB4_11MetricStack8is_empty
FN:100,_RINvMs0_NtNtCsbwBEBaEzfvW_11git_metrics6entity6metricNtB6_12MetricHeader3newReEBa_
FN:107,_RINvMs0_NtNtCsbwBEBaEzfvW_11git_metrics6entity6metricNtB6_12MetricHeader8with_tagReB1h_EBa_
FN:114,_RINvXs1_NtNtCsbwBEBaEzfvW_11git_metrics6entity6metricNtB6_12MetricHeaderNtNtCs2ke5FKHNm4X_4core4hash4Hash4hashNtNtNtCsdxE0gjJwg7i_3std4hash6random13DefaultHasherEBa_
FN:132,_RINvMs2_NtNtCsbwBEBaEzfvW_11git_metrics6entity6metricNtB6_6Metric3newReEBa_
FN:145,_RINvMs2_NtNtCsbwBEBaEzfvW_11git_metrics6entity6metricNtB6_6Metric8with_tagReB1a_EBa_
FN:84,_RNvXNvXNvNtNtCsbwBEBaEzfvW_11git_metrics6entity6metric1__NtB7_12MetricChangeNtNtCslI84mjRi2PN_5serde2de11Deserialize11deserializeNtB2_14___FieldVisitorNtB1e_7Visitor9expecting
FN:84,_RINvXNvXNvNtNtCsbwBEBaEzfvW_11git_metrics6entity6metric1__NtB8_12MetricChangeNtNtCslI84mjRi2PN_5serde2de11Deserialize11deserializeNtB3_14___FieldVisitorNtB1f_7Visitor9visit_strNtNtCs6lm0jMM3zOD_9toml_edit2de5ErrorEBc_
FN:84,_RINvXs_NvXNvNtNtCsbwBEBaEzfvW_11git_metrics6entity6metric1__NtBa_12MetricChangeNtNtCslI84mjRi2PN_5serde2de11Deserialize11deserializeNtB5_7___FieldB1f_11deserializeINtNtB1h_5value18StringDeserializerNtNtCs6lm0jMM3zOD_9toml_edit2de5ErrorEEBe_
FN:84,_RINvXs_NvXNvNtNtCsbwBEBaEzfvW_11git_metrics6entity6metric1__NtBa_12MetricChangeNtNtCslI84mjRi2PN_5serde2de11Deserialize11deserializeNtB5_7___FieldB1f_11deserializeNtNtNtCs6lm0jMM3zOD_9toml_edit2de5value17ValueDeserializerEBe_
FN:91,_RNvXNvXNvNtNtCsbwBEBaEzfvW_11git_metrics6entity6metrics1_1__NtB7_12MetricHeaderNtNtCslI84mjRi2PN_5serde2de11Deserialize11deserializeNtB2_14___FieldVisitorNtB1h_7Visitor9expecting
FN:91,_RINvXNvXNvNtNtCsbwBEBaEzfvW_11git_metrics6entity6metrics1_1__NtB8_12MetricHeaderNtNtCslI84mjRi2PN_5serde2de11Deserialize11deserializeNtB3_14___FieldVisitorNtB1i_7Visitor9visit_u64NtNtCs6lm0jMM3zOD_9toml_edit2de5ErrorEBc_
FN:91,_RINvXNvXNvNtNtCsbwBEBaEzfvW_11git_metrics6entity6metrics1_1__NtB8_12MetricHeaderNtNtCslI84mjRi2PN_5serde2de11Deserialize11deserializeNtB3_14___FieldVisitorNtB1i_7Visitor9visit_strNtNtCs6lm0jMM3zOD_9toml_edit2de5ErrorEBc_
FN:91,_RINvXNvXNvNtNtCsbwBEBaEzfvW_11git_metrics6entity6metrics1_1__NtB8_12MetricHeaderNtNtCslI84mjRi2PN_5serde2de11Deserialize11deserializeNtB3_14___FieldVisitorNtB1i_7Visitor11visit_bytesNtNtCs6lm0jMM3zOD_9toml_edit2de5ErrorEBc_
FN:91,_RINvXs_NvXNvNtNtCsbwBEBaEzfvW_11git_metrics6entity6metrics1_1__NtBa_12MetricHeaderNtNtCslI84mjRi2PN_5serde2de11Deserialize11deserializeNtB5_7___FieldB1i_11deserializeINtNtNtNtB1m_9___private2de7content19ContentDeserializerNtNtCs6lm0jMM3zOD_9toml_edit2de5ErrorEEBe_
FN:91,_RINvXs0_NvXNvNtNtCsbwBEBaEzfvW_11git_metrics6entity6metrics1_1__NtBb_12MetricHeaderNtNtCslI84mjRi2PN_5serde2de11Deserialize11deserializeNtB6_9___VisitorNtB1l_7Visitor9visit_mapINtNtNtB1n_9___private2de16FlatStructAccessNtNtCs6lm0jMM3zOD_9toml_edit2de5ErrorEEBf_
FN:123,_RNvXNvXNvNtNtCsbwBEBaEzfvW_11git_metrics6entity6metrics3_1__NtB7_6MetricNtNtCslI84mjRi2PN_5serde2de11Deserialize11deserializeNtB2_14___FieldVisitorNtB1a_7Visitor9expecting
FN:123,_RINvXNvXNvNtNtCsbwBEBaEzfvW_11git_metrics6entity6metrics3_1__NtB8_6MetricNtNtCslI84mjRi2PN_5serde2de11Deserialize11deserializeNtB3_14___FieldVisitorNtB1b_7Visitor8visit_u8NtNtCs6lm0jMM3zOD_9toml_edit2de5ErrorEBc_
FN:123,_RINvXNvXNvNtNtCsbwBEBaEzfvW_11git_metrics6entity6metrics3_1__NtB8_6MetricNtNtCslI84mjRi2PN_5serde2de11Deserialize11deserializeNtB3_14___FieldVisitorNtB1b_7Visitor9visit_u64NtNtCs6lm0jMM3zOD_9toml_edit2de5ErrorEBc_
FN:123,_RINvXNvXNvNtNtCsbwBEBaEzfvW_11git_metrics6entity6metrics3_1__NtB8_6MetricNtNtCslI84mjRi2PN_5serde2de11Deserialize11deserializeNtB3_14___FieldVisitorNtB1b_7Visitor9visit_strNtNtCs6lm0jMM3zOD_9toml_edit2de5ErrorEBc_
FN:123,_RINvXNvXNvNtNtCsbwBEBaEzfvW_11git_metrics6entity6metrics3_1__NtB8_6MetricNtNtCslI84mjRi2PN_5serde2de11Deserialize11deserializeNtB3_14___FieldVisitorNtB1b_7Visitor11visit_bytesNtNtCs6lm0jMM3zOD_9toml_edit2de5ErrorEBc_
FN:123,_RINvXNvXNvNtNtCsbwBEBaEzfvW_11git_metrics6entity6metrics3_1__NtB8_6MetricNtNtCslI84mjRi2PN_5serde2de11Deserialize11deserializeNtB3_14___FieldVisitorNtB1b_7Visitor18visit_borrowed_strNtNtCs6lm0jMM3zOD_9toml_edit2de5ErrorEBc_
FN:123,_RINvXNvXNvNtNtCsbwBEBaEzfvW_11git_metrics6entity6metrics3_1__NtB8_6MetricNtNtCslI84mjRi2PN_5serde2de11Deserialize11deserializeNtB3_14___FieldVisitorNtB1b_7Visitor20visit_borrowed_bytesNtNtCs6lm0jMM3zOD_9toml_edit2de5ErrorEBc_
FN:123,_RINvXs_NvXNvNtNtCsbwBEBaEzfvW_11git_metrics6entity6metrics3_1__NtBa_6MetricNtNtCslI84mjRi2PN_5serde2de11Deserialize11deserializeNtB5_7___FieldB1b_11deserializeINtNtB1d_5value23BorrowedStrDeserializerNtNtCs6lm0jMM3zOD_9toml_edit2de5ErrorEEBe_
FN:123,_RINvXs_NvXNvNtNtCsbwBEBaEzfvW_11git_metrics6entity6metrics3_1__NtBa_6MetricNtNtCslI84mjRi2PN_5serde2de11Deserialize11deserializeNtB5_7___FieldB1b_11deserializeINtNtNtNtB1f_9___private2de7content19ContentDeserializerNtNtCs6lm0jMM3zOD_9toml_edit2de5ErrorEEBe_
FN:123,_RINvXs_NvXNvNtNtCsbwBEBaEzfvW_11git_metrics6entity6metrics3_1__NtBa_6MetricNtNtCslI84mjRi2PN_5serde2de11Deserialize11deserializeNtB5_7___FieldB1b_11deserializeNtNtNtCs6lm0jMM3zOD_9toml_edit2de3key15KeyDeserializerEBe_
FN:123,_RNvXs0_NvXNvNtNtCsbwBEBaEzfvW_11git_metrics6entity6metrics3_1__NtBa_6MetricNtNtCslI84mjRi2PN_5serde2de11Deserialize11deserializeNtB5_9___VisitorNtB1d_7Visitor9expecting
FN:123,_RINvXs0_NvXNvNtNtCsbwBEBaEzfvW_11git_metrics6entity6metrics3_1__NtBb_6MetricNtNtCslI84mjRi2PN_5serde2de11Deserialize11deserializeNtB6_9___VisitorNtB1e_7Visitor9visit_mapNtNtNtCs6lm0jMM3zOD_9toml_edit2de5table14TableMapAccessEBf_
FN:123,_RINvXs0_NvXNvNtNtCsbwBEBaEzfvW_11git_metrics6entity6metrics3_1__NtBb_6MetricNtNtCslI84mjRi2PN_5serde2de11Deserialize11deserializeNtB6_9___VisitorNtB1e_7Visitor9visit_mapNtNtNtCs6lm0jMM3zOD_9toml_edit2de8datetime20DatetimeDeserializerEBf_
FN:123,_RINvXs0_NvXNvNtNtCsbwBEBaEzfvW_11git_metrics6entity6metrics3_1__NtBb_6MetricNtNtCslI84mjRi2PN_5serde2de11Deserialize11deserializeNtB6_9___VisitorNtB1e_7Visitor9visit_mapQINtNtB1e_5value15MapDeserializerINtNtNtNtCs2ke5FKHNm4X_4core4iter8adapters3map3MapINtNtNtCs2wnU2autU56_5alloc3vec9into_iter8IntoIterTNtNtNtNtB1g_9___private2de7content7ContentB4R_EENCINvB4T_17visit_content_mapB23_NtNtCs6lm0jMM3zOD_9toml_edit2de5ErrorE0EB69_EEBf_
FN:84,_RINvXNvXNvNtNtCsbwBEBaEzfvW_11git_metrics6entity6metric1__NtB8_12MetricChangeNtNtCslI84mjRi2PN_5serde2de11Deserialize11deserializeNtB3_14___FieldVisitorNtB1f_7Visitor9visit_u64pEBc_
FN:84,_RINvXNvXNvNtNtCsbwBEBaEzfvW_11git_metrics6entity6metric1__NtB8_12MetricChangeNtNtCslI84mjRi2PN_5serde2de11Deserialize11deserializeNtB3_14___FieldVisitorNtB1f_7Visitor11visit_bytespEBc_
FN:91,_RNvXs0_NvXNvNtNtCsbwBEBaEzfvW_11git_metrics6entity6metrics1_1__NtBa_12MetricHeaderNtNtCslI84mjRi2PN_5serde2de11Deserialize11deserializeNtB5_9___VisitorNtB1k_7Visitor9expecting
FN:91,_RINvXs0_NvXNvNtNtCsbwBEBaEzfvW_11git_metrics6entity6metrics1_1__NtBb_12MetricHeaderNtNtCslI84mjRi2PN_5serde2de11Deserialize11deserializeNtB6_9___VisitorNtB1l_7Visitor9visit_seqpEBf_
FN:123,_RINvXNvXNvNtNtCsbwBEBaEzfvW_11git_metrics6entity6metrics3_1__NtB8_6MetricNtNtCslI84mjRi2PN_5serde2de11Deserialize11deserializeNtB3_14___FieldVisitorNtB1b_7Visitor10visit_boolpEBc_
FN:123,_RINvXNvXNvNtNtCsbwBEBaEzfvW_11git_metrics6entity6metrics3_1__NtB8_6MetricNtNtCslI84mjRi2PN_5serde2de11Deserialize11deserializeNtB3_14___FieldVisitorNtB1b_7Visitor8visit_i8pEBc_
FN:123,_RINvXNvXNvNtNtCsbwBEBaEzfvW_11git_metrics6entity6metrics3_1__NtB8_6MetricNtNtCslI84mjRi2PN_5serde2de11Deserialize11deserializeNtB3_14___FieldVisitorNtB1b_7Visitor9visit_i16pEBc_
FN:123,_RINvXNvXNvNtNtCsbwBEBaEzfvW_11git_metrics6entity6metrics3_1__NtB8_6MetricNtNtCslI84mjRi2PN_5serde2de11Deserialize11deserializeNtB3_14___FieldVisitorNtB1b_7Visitor9visit_i32pEBc_
FN:123,_RINvXNvXNvNtNtCsbwBEBaEzfvW_11git_metrics6entity6metrics3_1__NtB8_6MetricNtNtCslI84mjRi2PN_5serde2de11Deserialize11deserializeNtB3_14___FieldVisitorNtB1b_7Visitor9visit_i64pEBc_
FN:123,_RINvXNvXNvNtNtCsbwBEBaEzfvW_11git_metrics6entity6metrics3_1__NtB8_6MetricNtNtCslI84mjRi2PN_5serde2de11Deserialize11deserializeNtB3_14___FieldVisitorNtB1b_7Visitor9visit_u16pEBc_
FN:123,_RINvXNvXNvNtNtCsbwBEBaEzfvW_11git_metrics6entity6metrics3_1__NtB8_6MetricNtNtCslI84mjRi2PN_5serde2de11Deserialize11deserializeNtB3_14___FieldVisitorNtB1b_7Visitor9visit_u32pEBc_
FN:123,_RINvXNvXNvNtNtCsbwBEBaEzfvW_11git_metrics6entity6metrics3_1__NtB8_6MetricNtNtCslI84mjRi2PN_5serde2de11Deserialize11deserializeNtB3_14___FieldVisitorNtB1b_7Visitor9visit_f32pEBc_
FN:123,_RINvXNvXNvNtNtCsbwBEBaEzfvW_11git_metrics6entity6metrics3_1__NtB8_6MetricNtNtCslI84mjRi2PN_5serde2de11Deserialize11deserializeNtB3_14___FieldVisitorNtB1b_7Visitor9visit_f64pEBc_
FN:123,_RINvXNvXNvNtNtCsbwBEBaEzfvW_11git_metrics6entity6metrics3_1__NtB8_6MetricNtNtCslI84mjRi2PN_5serde2de11Deserialize11deserializeNtB3_14___FieldVisitorNtB1b_7Visitor10visit_charpEBc_
FN:123,_RINvXNvXNvNtNtCsbwBEBaEzfvW_11git_metrics6entity6metrics3_1__NtB8_6MetricNtNtCslI84mjRi2PN_5serde2de11Deserialize11deserializeNtB3_14___FieldVisitorNtB1b_7Visitor10visit_unitpEBc_
FNDA:61,_RNvXNtNtCsbwBEBaEzfvW_11git_metrics6entity6metricNtB2_19MetricStackIteratorNtNtNtNtCs2ke5FKHNm4X_4core4iter6traits8iterator8Iterator4next
FNDA:35,_RNCNvXNtNtCsbwBEBaEzfvW_11git_metrics6entity6metricNtB4_19MetricStackIteratorNtNtNtNtCs2ke5FKHNm4X_4core4iter6traits8iterator8Iterator4next0B8_
FNDA:87,_RINvMs_NtNtCsbwBEBaEzfvW_11git_metrics6entity6metricNtB5_11MetricStack9from_iterINtNtNtCs2wnU2autU56_5alloc3vec9into_iter8IntoIterNtB5_6MetricEEB9_
FNDA:68,_RNCINvMs_NtNtCsbwBEBaEzfvW_11git_metrics6entity6metricNtB7_11MetricStack9from_iterINtNtNtCs2wnU2autU56_5alloc3vec9into_iter8IntoIterNtB7_6MetricEE0Bb_
FNDA:50,_RNvMs_NtNtCsbwBEBaEzfvW_11git_metrics6entity6metricNtB4_11MetricStack6extend
FNDA:44,_RNvMs_NtNtCsbwBEBaEzfvW_11git_metrics6entity6metricNtB4_11MetricStack12remove_entry
FNDA:105,_RNvMs_NtNtCsbwBEBaEzfvW_11git_metrics6entity6metricNtB4_11MetricStack11with_change
FNDA:87,_RINvMs_NtNtCsbwBEBaEzfvW_11git_metrics6entity6metricNtB5_11MetricStack12with_changesINtNtNtCs2wnU2autU56_5alloc3vec9into_iter8IntoIterNtB5_12MetricChangeEEB9_
FNDA:105,_RNCINvMs_NtNtCsbwBEBaEzfvW_11git_metrics6entity6metricNtB7_11MetricStack12with_changesINtNtNtCs2wnU2autU56_5alloc3vec9into_iter8IntoIterNtB7_12MetricChangeEE0Bb_
FNDA:26,_RNvMs_NtNtCsbwBEBaEzfvW_11git_metrics6entity6metricNtB4_11MetricStack16into_metric_iter
FNDA:32,_RNvMs_NtNtCsbwBEBaEzfvW_11git_metrics6entity6metricNtB4_11MetricStack10into_inner
FNDA:10,_RNvMs_NtNtCsbwBEBaEzfvW_11git_metrics6entity6metricNtB4_11MetricStack8into_vec
FNDA:1,_RNvMs_NtNtCsbwBEBaEzfvW_11git_metrics6entity6metricNtB4_11MetricStack2at
FNDA:0,_RNCNvMs_NtNtCsbwBEBaEzfvW_11git_metrics6entity6metricNtB6_11MetricStack2at0Ba_
FNDA:4,_RNvMs_NtNtCsbwBEBaEzfvW_11git_metrics6entity6metricNtB4_11MetricStack8is_empty
FNDA:20,_RINvMs0_NtNtCsbwBEBaEzfvW_11git_metrics6entity6metricNtB6_12MetricHeader3newReEBa_
FNDA:13,_RINvMs0_NtNtCsbwBEBaEzfvW_11git_metrics6entity6metricNtB6_12MetricHeader8with_tagReB1h_EBa_
FNDA:307,_RINvXs1_NtNtCsbwBEBaEzfvW_11git_metrics6entity6metricNtB6_12MetricHeaderNtNtCs2ke5FKHNm4X_4core4hash4Hash4hashNtNtNtCsdxE0gjJwg7i_3std4hash6random13DefaultHasherEBa_
FNDA:3,_RINvMs2_NtNtCsbwBEBaEzfvW_11git_metrics6entity6metricNtB6_6Metric3newReEBa_
FNDA:3,_RINvMs2_NtNtCsbwBEBaEzfvW_11git_metrics6entity6metricNtB6_6Metric8with_tagReB1a_EBa_
FNDA:0,_RNvXNvXNvNtNtCsbwBEBaEzfvW_11git_metrics6entity6metric1__NtB7_12MetricChangeNtNtCslI84mjRi2PN_5serde2de11Deserialize11deserializeNtB2_14___FieldVisitorNtB1e_7Visitor9expecting
FNDA:138,_RINvXNvXNvNtNtCsbwBEBaEzfvW_11git_metrics6entity6metric1__NtB8_12MetricChangeNtNtCslI84mjRi2PN_5serde2de11Deserialize11deserializeNtB3_14___FieldVisitorNtB1f_7Visitor9visit_strNtNtCs6lm0jMM3zOD_9toml_edit2de5ErrorEBc_
FNDA:0,_RINvXs_NvXNvNtNtCsbwBEBaEzfvW_11git_metrics6entity6metric1__NtBa_12MetricChangeNtNtCslI84mjRi2PN_5serde2de11Deserialize11deserializeNtB5_7___FieldB1f_11deserializeINtNtB1h_5value18StringDeserializerNtNtCs6lm0jMM3zOD_9toml_edit2de5ErrorEEBe_
FNDA:138,_RINvXs_NvXNvNtNtCsbwBEBaEzfvW_11git_metrics6entity6metric1__NtBa_12MetricChangeNtNtCslI84mjRi2PN_5serde2de11Deserialize11deserializeNtB5_7___FieldB1f_11deserializeNtNtNtCs6lm0jMM3zOD_9toml_edit2de5value17ValueDeserializerEBe_
FNDA:0,_RNvXNvXNvNtNtCsbwBEBaEzfvW_11git_metrics6entity6metrics1_1__NtB7_12MetricHeaderNtNtCslI84mjRi2PN_5serde2de11Deserialize11deserializeNtB2_14___FieldVisitorNtB1h_7Visitor9expecting
FNDA:0,_RINvXNvXNvNtNtCsbwBEBaEzfvW_11git_metrics6entity6metrics1_1__NtB8_12MetricHeaderNtNtCslI84mjRi2PN_5serde2de11Deserialize11deserializeNtB3_14___FieldVisitorNtB1i_7Visitor9visit_u64NtNtCs6lm0jMM3zOD_9toml_edit2de5ErrorEBc_
FNDA:411,_RINvXNvXNvNtNtCsbwBEBaEzfvW_11git_metrics6entity6metrics1_1__NtB8_12MetricHeaderNtNtCslI84mjRi2PN_5serde2de11Deserialize11deserializeNtB3_14___FieldVisitorNtB1i_7Visitor9visit_strNtNtCs6lm0jMM3zOD_9toml_edit2de5ErrorEBc_
FNDA:0,_RINvXNvXNvNtNtCsbwBEBaEzfvW_11git_metrics6entity6metrics1_1__NtB8_12MetricHeaderNtNtCslI84mjRi2PN_5serde2de11Deserialize11deserializeNtB3_14___FieldVisitorNtB1i_7Visitor11visit_bytesNtNtCs6lm0jMM3zOD_9toml_edit2de5ErrorEBc_
FNDA:411,_RINvXs_NvXNvNtNtCsbwBEBaEzfvW_11git_metrics6entity6metrics1_1__NtBa_12MetricHeaderNtNtCslI84mjRi2PN_5serde2de11Deserialize11deserializeNtB5_7___FieldB1i_11deserializeINtNtNtNtB1m_9___private2de7content19ContentDeserializerNtNtCs6lm0jMM3zOD_9toml_edit2de5ErrorEEBe_
FNDA:206,_RINvXs0_NvXNvNtNtCsbwBEBaEzfvW_11git_metrics6entity6metrics1_1__NtBb_12MetricHeaderNtNtCslI84mjRi2PN_5serde2de11Deserialize11deserializeNtB6_9___VisitorNtB1l_7Visitor9visit_mapINtNtNtB1n_9___private2de16FlatStructAccessNtNtCs6lm0jMM3zOD_9toml_edit2de5ErrorEEBf_
FNDA:0,_RNvXNvXNvNtNtCsbwBEBaEzfvW_11git_metrics6entity6metrics3_1__NtB7_6MetricNtNtCslI84mjRi2PN_5serde2de11Deserialize11deserializeNtB2_14___FieldVisitorNtB1a_7Visitor9expecting
FNDA:0,_RINvXNvXNvNtNtCsbwBEBaEzfvW_11git_metrics6entity6metrics3_1__NtB8_6MetricNtNtCslI84mjRi2PN_5serde2de11Deserialize11deserializeNtB3_14___FieldVisitorNtB1b_7Visitor8visit_u8NtNtCs6lm0jMM3zOD_9toml_edit2de5ErrorEBc_
FNDA:0,_RINvXNvXNvNtNtCsbwBEBaEzfvW_11git_metrics6entity6metrics3_1__NtB8_6MetricNtNtCslI84mjRi2PN_5serde2de11Deserialize11deserializeNtB3_14___FieldVisitorNtB1b_7Visitor9visit_u64NtNtCs6lm0jMM3zOD_9toml_edit2de5ErrorEBc_
FNDA:617,_RINvXNvXNvNtNtCsbwBEBaEzfvW_11git_metrics6entity6metrics3_1__NtB8_6MetricNtNtCslI84mjRi2PN_5serde2de11Deserialize11deserializeNtB3_14___FieldVisitorNtB1b_7Visitor9visit_strNtNtCs6lm0jMM3zOD_9toml_edit2de5ErrorEBc_
FNDA:0,_RINvXNvXNvNtNtCsbwBEBaEzfvW_11git_metrics6entity6metrics3_1__NtB8_6MetricNtNtCslI84mjRi2PN_5serde2de11Deserialize11deserializeNtB3_14___FieldVisitorNtB1b_7Visitor11visit_bytesNtNtCs6lm0jMM3zOD_9toml_edit2de5ErrorEBc_
FNDA:0,_RINvXNvXNvNtNtCsbwBEBaEzfvW_11git_metrics6entity6metrics3_1__NtB8_6MetricNtNtCslI84mjRi2PN_5serde2de11Deserialize11deserializeNtB3_14___FieldVisitorNtB1b_7Visitor18visit_borrowed_strNtNtCs6lm0jMM3zOD_9toml_edit2de5ErrorEBc_
FNDA:0,_RINvXNvXNvNtNtCsbwBEBaEzfvW_11git_metrics6entity6metrics3_1__NtB8_6MetricNtNtCslI84mjRi2PN_5serde2de11Deserialize11deserializeNtB3_14___FieldVisitorNtB1b_7Visitor20visit_borrowed_bytesNtNtCs6lm0jMM3zOD_9toml_edit2de5ErrorEBc_
FNDA:0,_RINvXs_NvXNvNtNtCsbwBEBaEzfvW_11git_metrics6entity6metrics3_1__NtBa_6MetricNtNtCslI84mjRi2PN_5serde2de11Deserialize11deserializeNtB5_7___FieldB1b_11deserializeINtNtB1d_5value23BorrowedStrDeserializerNtNtCs6lm0jMM3zOD_9toml_edit2de5ErrorEEBe_
FNDA:414,_RINvXs_NvXNvNtNtCsbwBEBaEzfvW_11git_metrics6entity6metrics3_1__NtBa_6MetricNtNtCslI84mjRi2PN_5serde2de11Deserialize11deserializeNtB5_7___FieldB1b_11deserializeINtNtNtNtB1f_9___private2de7content19ContentDeserializerNtNtCs6lm0jMM3zOD_9toml_edit2de5ErrorEEBe_
FNDA:203,_RINvXs_NvXNvNtNtCsbwBEBaEzfvW_11git_metrics6entity6metrics3_1__NtBa_6MetricNtNtCslI84mjRi2PN_5serde2de11Deserialize11deserializeNtB5_7___FieldB1b_11deserializeNtNtNtCs6lm0jMM3zOD_9toml_edit2de3key15KeyDeserializerEBe_
FNDA:0,_RNvXs0_NvXNvNtNtCsbwBEBaEzfvW_11git_metrics6entity6metrics3_1__NtBa_6MetricNtNtCslI84mjRi2PN_5serde2de11Deserialize11deserializeNtB5_9___VisitorNtB1d_7Visitor9expecting
FNDA:68,_RINvXs0_NvXNvNtNtCsbwBEBaEzfvW_11git_metrics6entity6metrics3_1__NtBb_6MetricNtNtCslI84mjRi2PN_5serde2de11Deserialize11deserializeNtB6_9___VisitorNtB1e_7Visitor9visit_mapNtNtNtCs6lm0jMM3zOD_9toml_edit2de5table14TableMapAccessEBf_
FNDA:0,_RINvXs0_NvXNvNtNtCsbwBEBaEzfvW_11git_metrics6entity6metrics3_1__NtBb_6MetricNtNtCslI84mjRi2PN_5serde2de11Deserialize11deserializeNtB6_9___VisitorNtB1e_7Visitor9visit_mapNtNtNtCs6lm0jMM3zOD_9toml_edit2de8datetime20DatetimeDeserializerEBf_
FNDA:138,_RINvXs0_NvXNvNtNtCsbwBEBaEzfvW_11git_metrics6entity6metrics3_1__NtBb_6MetricNtNtCslI84mjRi2PN_5serde2de11Deserialize11deserializeNtB6_9___VisitorNtB1e_7Visitor9visit_mapQINtNtB1e_5value15MapDeserializerINtNtNtNtCs2ke5FKHNm4X_4core4iter8adapters3map3MapINtNtNtCs2wnU2autU56_5alloc3vec9into_iter8IntoIterTNtNtNtNtB1g_9___private2de7content7ContentB4R_EENCINvB4T_17visit_content_mapB23_NtNtCs6lm0jMM3zOD_9toml_edit2de5ErrorE0EB69_EEBf_
FNDA:0,_RINvXNvXNvNtNtCsbwBEBaEzfvW_11git_metrics6entity6metric1__NtB8_12MetricChangeNtNtCslI84mjRi2PN_5serde2de11Deserialize11deserializeNtB3_14___FieldVisitorNtB1f_7Visitor9visit_u64pEBc_
FNDA:0,_RINvXNvXNvNtNtCsbwBEBaEzfvW_11git_metrics6entity6metric1__NtB8_12MetricChangeNtNtCslI84mjRi2PN_5serde2de11Deserialize11deserializeNtB3_14___FieldVisitorNtB1f_7Visitor11visit_bytespEBc_
FNDA:0,_RNvXs0_NvXNvNtNtCsbwBEBaEzfvW_11git_metrics6entity6metrics1_1__NtBa_12MetricHeaderNtNtCslI84mjRi2PN_5serde2de11Deserialize11deserializeNtB5_9___VisitorNtB1k_7Visitor9expecting
FNDA:0,_RINvXs0_NvXNvNtNtCsbwBEBaEzfvW_11git_metrics6entity6metrics1_1__NtBb_12MetricHeaderNtNtCslI84mjRi2PN_5serde2de11Deserialize11deserializeNtB6_9___VisitorNtB1l_7Visitor9visit_seqpEBf_
FNDA:0,_RINvXNvXNvNtNtCsbwBEBaEzfvW_11git_metrics6entity6metrics3_1__NtB8_6MetricNtNtCslI84mjRi2PN_5serde2de11Deserialize11deserializeNtB3_14___FieldVisitorNtB1b_7Visitor10visit_boolpEBc_
FNDA:0,_RINvXNvXNvNtNtCsbwBEBaEzfvW_11git_metrics6entity6metrics3_1__NtB8_6MetricNtNtCslI84mjRi2PN_5serde2de11Deserialize11deserializeNtB3_14___FieldVisitorNtB1b_7Visitor8visit_i8pEBc_
FNDA:0,_RINvXNvXNvNtNtCsbwBEBaEzfvW_11git_metrics6entity6metrics3_1__NtB8_6MetricNtNtCslI84mjRi2PN_5serde2de11Deserialize11deserializeNtB3_14___FieldVisitorNtB1b_7Visitor9visit_i16pEBc_
FNDA:0,_RINvXNvXNvNtNtCsbwBEBaEzfvW_11git_metrics6entity6metrics3_1__NtB8_6MetricNtNtCslI84mjRi2PN_5serde2de11Deserialize11deserializeNtB3_14___FieldVisitorNtB1b_7Visitor9visit_i32pEBc_
FNDA:0,_RINvXNvXNvNtNtCsbwBEBaEzfvW_11git_metrics6entity6metrics3_1__NtB8_6MetricNtNtCslI84mjRi2PN_5serde2de11Deserialize11deserializeNtB3_14___FieldVisitorNtB1b_7Visitor9visit_i64pEBc_
FNDA:0,_RINvXNvXNvNtNtCsbwBEBaEzfvW_11git_metrics6entity6metrics3_1__NtB8_6MetricNtNtCslI84mjRi2PN_5serde2de11Deserialize11deserializeNtB3_14___FieldVisitorNtB1b_7Visitor9visit_u16pEBc_
FNDA:0,_RINvXNvXNvNtNtCsbwBEBaEzfvW_11git_metrics6entity6metrics3_1__NtB8_6MetricNtNtCslI84mjRi2PN_5serde2de11Deserialize11deserializeNtB3_14___FieldVisitorNtB1b_7Visitor9visit_u32pEBc_
FNDA:0,_RINvXNvXNvNtNtCsbwBEBaEzfvW_11git_metrics6entity6metrics3_1__NtB8_6MetricNtNtCslI84mjRi2PN_5serde2de11Deserialize11deserializeNtB3_14___FieldVisitorNtB1b_7Visitor9visit_f32pEBc_
FNDA:0,_RINvXNvXNvNtNtCsbwBEBaEzfvW_11git_metrics6entity6metrics3_1__NtB8_6MetricNtNtCslI84mjRi2PN_5serde2de11Deserialize11deserializeNtB3_14___FieldVisitorNtB1b_7Visitor9visit_f64pEBc_
FNDA:0,_RINvXNvXNvNtNtCsbwBEBaEzfvW_11git_metrics6entity6metrics3_1__NtB8_6MetricNtNtCslI84mjRi2PN_5serde2de11Deserialize11deserializeNtB3_14___FieldVisitorNtB1b_7Visitor10visit_charpEBc_
FNDA:0,_RINvXNvXNvNtNtCsbwBEBaEzfvW_11git_metrics6entity6metrics3_1__NtB8_6MetricNtNtCslI84mjRi2PN_5serde2de11Deserialize11deserializeNtB3_14___FieldVisitorNtB1b_7Visitor10visit_unitpEBc_
FNF:23
FNH:22
DA:12,61
DA:13,61
DA:14,61
DA:15,61
DA:16,61
DA:26,87
DA:27,87
DA:28,87
DA:29,87
DA:30,87
DA:32,50
DA:33,50
DA:34,50
DA:36,44
DA:37,44
DA:38,44
DA:40,105
DA:41,105
DA:42,105
DA:43,105
DA:44,105
DA:45,0
DA:46,0
DA:47,0
DA:48,0
DA:49,0
DA:52,105
DA:53,105
DA:55,87
DA:56,105
DA:57,87
DA:59,26
DA:60,26
DA:61,26
DA:62,26
DA:63,26
DA:65,32
DA:66,32
DA:67,32
DA:69,10
DA:70,10
DA:71,10
DA:73,1
DA:74,1
DA:75,1
DA:76,1
DA:77,1
DA:79,4
DA:80,4
DA:81,4
DA:84,138
DA:91,617
DA:100,20
DA:101,20
DA:102,20
DA:103,20
DA:104,20
DA:105,20
DA:107,13
DA:108,13
DA:109,13
DA:110,13
DA:114,307
DA:115,307
DA:116,307
DA:117,249
DA:118,249
DA:119,249
DA:120,307
DA:123,823
DA:132,3
DA:133,3
DA:134,3
DA:135,3
DA:136,3
DA:137,3
DA:138,3
DA:139,3
DA:140,3
DA:141,3
DA:142,3
DA:143,3
DA:145,3
DA:146,3
DA:147,3
DA:148,3
BRF:0
BRH:0
LF:90
LH:84
end_of_record
SF:/code/git-metrics/src/error.rs
FN:4,_RINvYNtNtCsbwBEBaEzfvW_11git_metrics7service5ErrorNtNtB7_5error13DetailedError5writeQINtNtCs2wnU2autU56_5alloc3vec3VechEEB7_
FN:8,_RNCINvYNtNtCsbwBEBaEzfvW_11git_metrics7service5ErrorNtNtB9_5error13DetailedError5writeQINtNtCs2wnU2autU56_5alloc3vec3VechEE0B9_
FNDA:2,_RINvYNtNtCsbwBEBaEzfvW_11git_metrics7service5ErrorNtNtB7_5error13DetailedError5writeQINtNtCs2wnU2autU56_5alloc3vec3VechEEB7_
FNDA:10,_RNCINvYNtNtCsbwBEBaEzfvW_11git_metrics7service5ErrorNtNtB9_5error13DetailedError5writeQINtNtCs2wnU2autU56_5alloc3vec3VechEE0B9_
FNF:2
FNH:2
DA:4,2
DA:5,2
DA:6,2
DA:7,2
DA:8,10
DA:9,9
DA:11,0
DA:12,2
DA:13,2
BRF:0
BRH:0
LF:10
LH:9
end_of_record
SF:/code/git-metrics/src/importer/lcov.rs
FN:13,_RNvMNtNtCsbwBEBaEzfvW_11git_metrics8importer4lcovNtB2_8LcovFile6handle
FN:25,_RNvMNtNtCsbwBEBaEzfvW_11git_metrics8importer4lcovNtB2_8LcovFile3new
FN:40,_RNvMNtNtCsbwBEBaEzfvW_11git_metrics8importer4lcovNtB2_8LcovFile5build
FN:67,_RNvXs0_NtNtCsbwBEBaEzfvW_11git_metrics8importer4lcovNtB5_12LcovImporterNtB7_8Importer6import
FN:68,_RNCNvXs0_NtNtCsbwBEBaEzfvW_11git_metrics8importer4lcovNtB7_12LcovImporterNtB9_8Importer6import0Bb_
FN:61,_RNvMs_NtNtCsbwBEBaEzfvW_11git_metrics8importer4lcovNtB4_12LcovImporter3new
FNDA:0,_RNvMNtNtCsbwBEBaEzfvW_11git_metrics8importer4lcovNtB2_8LcovFile6handle
FNDA:0,_RNvMNtNtCsbwBEBaEzfvW_11git_metrics8importer4lcovNtB2_8LcovFile3new
FNDA:0,_RNvMNtNtCsbwBEBaEzfvW_11git_metrics8importer4lcovNtB2_8LcovFile5build
FNDA:0,_RNvXs0_NtNtCsbwBEBaEzfvW_11git_metrics8importer4lcovNtB5_12LcovImporterNtB7_8Importer6import
FNDA:0,_RNCNvXs0_NtNtCsbwBEBaEzfvW_11git_metrics8importer4lcovNtB7_12LcovImporterNtB9_8Importer6import0Bb_
FNDA:0,_RNvMs_NtNtCsbwBEBaEzfvW_11git_metrics8importer4lcovNtB4_12LcovImporter3new
FNF:6
FNH:0
DA:13,0
DA:14,0
DA:15,0
DA:16,0
DA:17,0
DA:18,0
DA:19,0
DA:20,0
DA:21,0
DA:23,0
DA:25,0
DA:26,0
DA:27,0
DA:28,0
DA:29,0
DA:30,0
DA:31,0
DA:32,0
DA:33,0
DA:37,0
DA:38,0
DA:40,0
DA:41,0
DA:42,0
DA:43,0
DA:44,0
DA:45,0
DA:46,0
DA:47,0
DA:48,0
DA:49,0
DA:50,0
DA:51,0
DA:61,0
DA:62,0
DA:63,0
DA:67,0
DA:68,0
DA:69,0
BRF:0
BRH:0
LF:40
LH:0
end_of_record
SF:/code/git-metrics/src/importer/mod.rs
FN:5,_RNvXs0_NtCsbwBEBaEzfvW_11git_metrics8importerNtB5_5ErrorNtNtCs2ke5FKHNm4X_4core3fmt7Display3fmt
FN:5,_RNvXs1_NtCsbwBEBaEzfvW_11git_metrics8importerNtB5_5ErrorINtNtCs2ke5FKHNm4X_4core7convert4FromNtNtNtCsdxE0gjJwg7i_3std2io5error5ErrorE4from
FN:5,_RNvXs_NtCsbwBEBaEzfvW_11git_metrics8importerNtB4_5ErrorNtNtCs2ke5FKHNm4X_4core5error5Error6source
FNDA:0,_RNvXs0_NtCsbwBEBaEzfvW_11git_metrics8importerNtB5_5ErrorNtNtCs2ke5FKHNm4X_4core3fmt7Display3fmt
FNDA:0,_RNvXs1_NtCsbwBEBaEzfvW_11git_metrics8importerNtB5_5ErrorINtNtCs2ke5FKHNm4X_4core7convert4FromNtNtNtCsdxE0gjJwg7i_3std2io5error5ErrorE4from
FNDA:0,_RNvXs_NtCsbwBEBaEzfvW_11git_metrics8importerNtB4_5ErrorNtNtCs2ke5FKHNm4X_4core5error5Error6source
FNF:1
FNH:0
DA:5,0
BRF:0
BRH:0
LF:1
LH:0
end_of_record
SF:/code/git-metrics/src/main.rs
FN:23,_RNvMCsbwBEBaEzfvW_11git_metricsNtB2_8ExitCode10is_success
FN:98,_RNvCsbwBEBaEzfvW_11git_metrics9can_color
FN:118,_RNvMs_CsbwBEBaEzfvW_11git_metricsNtB4_4Args13color_enabled
FN:133,_RINvMs_CsbwBEBaEzfvW_11git_metricsNtB5_4Args7executeINtNtCs2wnU2autU56_5alloc3vec3VechEBO_EB5_
FN:54,_RNCNvXs6_CsbwBEBaEzfvW_11git_metricsNtB7_4ArgsNtNtCs5tKP36R4pfF_12clap_builder6derive14FromArgMatches20from_arg_matches_mut0B7_
FN:61,_RNCNvXs6_CsbwBEBaEzfvW_11git_metricsNtB7_4ArgsNtNtCs5tKP36R4pfF_12clap_builder6derive14FromArgMatches20from_arg_matches_muts_0B7_
FN:87,_RNCNvXs6_CsbwBEBaEzfvW_11git_metricsNtB7_4ArgsNtNtCs5tKP36R4pfF_12clap_builder6derive14FromArgMatches20from_arg_matches_muts0_0B7_
FN:91,_RNCNvXs6_CsbwBEBaEzfvW_11git_metricsNtB7_4ArgsNtNtCs5tKP36R4pfF_12clap_builder6derive14FromArgMatches20from_arg_matches_muts1_0B7_
FN:27,_RNvMCsbwBEBaEzfvW_11git_metricsNtB2_8ExitCode4exit
FN:54,_RNCNvXs6_CsbwBEBaEzfvW_11git_metricsNtB7_4ArgsNtNtCs5tKP36R4pfF_12clap_builder6derive14FromArgMatches27update_from_arg_matches_mut0B7_
FN:61,_RNCNvXs6_CsbwBEBaEzfvW_11git_metricsNtB7_4ArgsNtNtCs5tKP36R4pfF_12clap_builder6derive14FromArgMatches27update_from_arg_matches_muts_0B7_
FN:87,_RNCNvXs6_CsbwBEBaEzfvW_11git_metricsNtB7_4ArgsNtNtCs5tKP36R4pfF_12clap_builder6derive14FromArgMatches27update_from_arg_matches_muts0_0B7_
FN:91,_RNCNvXs6_CsbwBEBaEzfvW_11git_metricsNtB7_4ArgsNtNtCs5tKP36R4pfF_12clap_builder6derive14FromArgMatches27update_from_arg_matches_muts1_0B7_
FN:122,_RNvMs_CsbwBEBaEzfvW_11git_metricsNtB4_4Args9log_level
FN:160,_RNvCsbwBEBaEzfvW_11git_metrics4main
FNDA:94,_RNvMCsbwBEBaEzfvW_11git_metricsNtB2_8ExitCode10is_success
FNDA:6,_RNvCsbwBEBaEzfvW_11git_metrics9can_color
FNDA:88,_RNvMs_CsbwBEBaEzfvW_11git_metricsNtB4_4Args13color_enabled
FNDA:88,_RINvMs_CsbwBEBaEzfvW_11git_metricsNtB5_4Args7executeINtNtCs2wnU2autU56_5alloc3vec3VechEBO_EB5_
FNDA:0,_RNCNvXs6_CsbwBEBaEzfvW_11git_metricsNtB7_4ArgsNtNtCs5tKP36R4pfF_12clap_builder6derive14FromArgMatches20from_arg_matches_mut0B7_
FNDA:0,_RNCNvXs6_CsbwBEBaEzfvW_11git_metricsNtB7_4ArgsNtNtCs5tKP36R4pfF_12clap_builder6derive14FromArgMatches20from_arg_matches_muts_0B7_
FNDA:0,_RNCNvXs6_CsbwBEBaEzfvW_11git_metricsNtB7_4ArgsNtNtCs5tKP36R4pfF_12clap_builder6derive14FromArgMatches20from_arg_matches_muts0_0B7_
FNDA:0,_RNCNvXs6_CsbwBEBaEzfvW_11git_metricsNtB7_4ArgsNtNtCs5tKP36R4pfF_12clap_builder6derive14FromArgMatches20from_arg_matches_muts1_0B7_
FNDA:0,_RNvMCsbwBEBaEzfvW_11git_metricsNtB2_8ExitCode4exit
FNDA:0,_RNCNvXs6_CsbwBEBaEzfvW_11git_metricsNtB7_4ArgsNtNtCs5tKP36R4pfF_12clap_builder6derive14FromArgMatches27update_from_arg_matches_mut0B7_
FNDA:0,_RNCNvXs6_CsbwBEBaEzfvW_11git_metricsNtB7_4ArgsNtNtCs5tKP36R4pfF_12clap_builder6derive14FromArgMatches27update_from_arg_matches_muts_0B7_
FNDA:0,_RNCNvXs6_CsbwBEBaEzfvW_11git_metricsNtB7_4ArgsNtNtCs5tKP36R4pfF_12clap_builder6derive14FromArgMatches27update_from_arg_matches_muts0_0B7_
FNDA:0,_RNCNvXs6_CsbwBEBaEzfvW_11git_metricsNtB7_4ArgsNtNtCs5tKP36R4pfF_12clap_builder6derive14FromArgMatches27update_from_arg_matches_muts1_0B7_
FNDA:0,_RNvMs_CsbwBEBaEzfvW_11git_metricsNtB4_4Args9log_level
FNDA:0,_RNvCsbwBEBaEzfvW_11git_metrics4main
FNF:11
FNH:4
DA:23,94
DA:24,94
DA:25,94
DA:27,0
DA:28,0
DA:29,0
DA:30,0
DA:54,0
DA:61,0
DA:87,0
DA:91,0
DA:98,6
DA:99,6
DA:102,0
DA:103,6
DA:104,6
DA:105,0
DA:106,6
DA:107,6
DA:108,6
DA:109,6
DA:110,6
DA:111,6
DA:112,0
DA:113,6
DA:114,6
DA:115,6
DA:118,88
DA:119,88
DA:120,88
DA:122,0
DA:123,0
DA:124,0
DA:125,0
DA:126,0
DA:127,0
DA:128,0
DA:129,0
DA:131,0
DA:133,88
DA:134,88
DA:135,88
DA:136,88
DA:137,88
DA:138,88
DA:139,88
DA:141,35
DA:142,35
DA:143,35
DA:144,35
DA:145,35
DA:146,35
DA:148,53
DA:149,53
DA:150,53
DA:151,53
DA:152,53
DA:153,53
DA:154,53
DA:155,53
DA:157,88
DA:160,0
DA:161,0
DA:163,0
DA:164,0
DA:165,0
DA:166,0
DA:167,0
DA:168,0
DA:170,0
DA:171,0
DA:172,0
DA:173,0
DA:174,0
BRF:0
BRH:0
LF:74
LH:41
end_of_record
SF:/code/git-metrics/src/service/add.rs
FN:10,_RNvMNtNtCsbwBEBaEzfvW_11git_metrics7service3addINtB4_7ServiceNtNtNtB6_7backend4git211Git2BackendE3addB6_
FN:10,_RNvMNtNtCsbwBEBaEzfvW_11git_metrics7service3addINtB4_7ServiceNtNtNtB6_7backend4mock11MockBackendE3addB6_
FN:10,_RNvMNtNtCsbwBEBaEzfvW_11git_metrics7service3addINtB4_7ServiceNtNtNtB6_7backend7command14CommandBackendE3addB6_
FNDA:28,_RNvMNtNtCsbwBEBaEzfvW_11git_metrics7service3addINtB4_7ServiceNtNtNtB6_7backend4git211Git2BackendE3addB6_
FNDA:3,_RNvMNtNtCsbwBEBaEzfvW_11git_metrics7service3addINtB4_7ServiceNtNtNtB6_7backend4mock11MockBackendE3addB6_
FNDA:14,_RNvMNtNtCsbwBEBaEzfvW_11git_metrics7service3addINtB4_7ServiceNtNtNtB6_7backend7command14CommandBackendE3addB6_
FNF:1
FNH:1
DA:10,45
DA:11,45
DA:12,45
DA:13,45
DA:15,45
DA:16,45
BRF:0
BRH:0
LF:6
LH:6
end_of_record
SF:/code/git-metrics/src/service/check.rs
FN:12,_RNvMNtNtCsbwBEBaEzfvW_11git_metrics7service5checkINtB4_7ServiceNtNtNtB6_7backend4git211Git2BackendE11open_configB6_
FN:12,_RNvMNtNtCsbwBEBaEzfvW_11git_metrics7service5checkINtB4_7ServiceNtNtNtB6_7backend4mock11MockBackendE11open_configB6_
FN:12,_RNvMNtNtCsbwBEBaEzfvW_11git_metrics7service5checkINtB4_7ServiceNtNtNtB6_7backend7command14CommandBackendE11open_configB6_
FN:23,_RNvMNtNtCsbwBEBaEzfvW_11git_metrics7service5checkINtB4_7ServiceNtNtNtB6_7backend4git211Git2BackendE5checkB6_
FN:23,_RNvMNtNtCsbwBEBaEzfvW_11git_metrics7service5checkINtB4_7ServiceNtNtNtB6_7backend4mock11MockBackendE5checkB6_
FN:23,_RNvMNtNtCsbwBEBaEzfvW_11git_metrics7service5checkINtB4_7ServiceNtNtNtB6_7backend7command14CommandBackendE5checkB6_
FN:49,_RNvNtNtNtCsbwBEBaEzfvW_11git_metrics7service5check5testss_14should_success
FN:105,_RNvNtNtNtCsbwBEBaEzfvW_11git_metrics7service5check5testss_27should_success_with_subsets
FNDA:2,_RNvMNtNtCsbwBEBaEzfvW_11git_metrics7service5checkINtB4_7ServiceNtNtNtB6_7backend4git211Git2BackendE11open_configB6_
FNDA:2,_RNvMNtNtCsbwBEBaEzfvW_11git_metrics7service5checkINtB4_7ServiceNtNtNtB6_7backend4mock11MockBackendE11open_configB6_
FNDA:2,_RNvMNtNtCsbwBEBaEzfvW_11git_metrics7service5checkINtB4_7ServiceNtNtNtB6_7backend7command14CommandBackendE11open_configB6_
FNDA:2,_RNvMNtNtCsbwBEBaEzfvW_11git_metrics7service5checkINtB4_7ServiceNtNtNtB6_7backend4git211Git2BackendE5checkB6_
FNDA:2,_RNvMNtNtCsbwBEBaEzfvW_11git_metrics7service5checkINtB4_7ServiceNtNtNtB6_7backend4mock11MockBackendE5checkB6_
FNDA:2,_RNvMNtNtCsbwBEBaEzfvW_11git_metrics7service5checkINtB4_7ServiceNtNtNtB6_7backend7command14CommandBackendE5checkB6_
FNDA:1,_RNvNtNtNtCsbwBEBaEzfvW_11git_metrics7service5check5testss_14should_success
FNDA:1,_RNvNtNtNtCsbwBEBaEzfvW_11git_metrics7service5check5testss_27should_success_with_subsets
FNF:4
FNH:4
DA:12,6
DA:13,6
DA:14,6
DA:15,6
DA:16,6
DA:18,0
DA:20,6
DA:21,6
DA:23,6
DA:24,6
DA:25,6
DA:26,6
DA:27,6
DA:28,6
DA:29,6
DA:30,6
DA:32,6
DA:33,6
DA:34,6
DA:49,1
DA:50,1
DA:51,1
DA:52,1
DA:53,1
DA:54,1
DA:55,1
DA:56,1
DA:57,1
DA:58,1
DA:59,1
DA:60,1
DA:61,1
DA:62,1
DA:63,1
DA:64,1
DA:65,1
DA:66,1
DA:67,1
DA:68,1
DA:69,1
DA:70,1
DA:71,1
DA:72,1
DA:73,1
DA:74,1
DA:75,1
DA:76,1
DA:77,1
DA:78,1
DA:79,1
DA:80,1
DA:81,1
DA:82,1
DA:83,1
DA:84,1
DA:85,1
DA:86,1
DA:87,1
DA:88,1
DA:89,1
DA:90,1
DA:91,1
DA:92,1
DA:93,1
DA:94,1
DA:95,1
DA:96,1
DA:97,1
DA:98,1
DA:99,1
DA:100,1
DA:101,1
DA:102,1
DA:105,1
DA:106,1
DA:107,1
DA:108,1
DA:109,1
DA:110,1
DA:111,1
DA:112,1
DA:113,1
DA:114,1
DA:115,1
DA:116,1
DA:117,1
DA:118,1
DA:119,1
DA:120,1
DA:121,1
DA:122,1
DA:123,1
DA:124,1
DA:125,1
DA:126,1
DA:127,1
DA:128,1
DA:129,1
DA:130,1
DA:131,1
DA:132,1
DA:133,1
DA:134,1
DA:135,1
DA:136,1
DA:137,1
DA:138,1
DA:139,1
DA:140,1
DA:141,1
DA:142,1
DA:143,1
DA:144,1
DA:145,1
DA:146,1
DA:147,1
DA:148,1
DA:149,1
DA:150,1
DA:151,1
DA:152,1
DA:153,1
DA:154,1
DA:155,1
DA:156,1
DA:157,1
DA:158,1
DA:159,1
DA:160,1
DA:161,1
DA:162,1
DA:163,1
DA:164,1
DA:165,1
DA:166,1
DA:167,1
DA:168,1
DA:169,1
DA:170,1
DA:171,1
DA:172,1
DA:173,1
DA:174,1
DA:175,1
DA:176,1
DA:177,1
DA:178,1
DA:179,1
DA:180,1
DA:181,1
DA:182,1
DA:183,1
DA:184,1
DA:185,1
BRF:0
BRH:0
LF:154
LH:153
end_of_record
SF:/code/git-metrics/src/service/diff.rs
FN:12,_RNvMNtNtCsbwBEBaEzfvW_11git_metrics7service4diffINtB4_7ServiceNtNtNtB6_7backend4git211Git2BackendE13stack_metricsB6_
FN:12,_RNvMNtNtCsbwBEBaEzfvW_11git_metrics7service4diffINtB4_7ServiceNtNtNtB6_7backend4mock11MockBackendE13stack_metricsB6_
FN:12,_RNvMNtNtCsbwBEBaEzfvW_11git_metrics7service4diffINtB4_7ServiceNtNtNtB6_7backend7command14CommandBackendE13stack_metricsB6_
FN:27,_RNvMNtNtCsbwBEBaEzfvW_11git_metrics7service4diffINtB4_7ServiceNtNtNtB6_7backend4git211Git2BackendE4diffB6_
FN:27,_RNvMNtNtCsbwBEBaEzfvW_11git_metrics7service4diffINtB4_7ServiceNtNtNtB6_7backend4mock11MockBackendE4diffB6_
FN:27,_RNvMNtNtCsbwBEBaEzfvW_11git_metrics7service4diffINtB4_7ServiceNtNtNtB6_7backend7command14CommandBackendE4diffB6_
FN:54,_RNvNtNtNtCsbwBEBaEzfvW_11git_metrics7service4diff5testss_54should_render_diff_with_single_target_keeping_previous
FN:107,_RNvNtNtNtCsbwBEBaEzfvW_11git_metrics7service4diff5testss_36should_render_diff_with_range_target
FNDA:9,_RNvMNtNtCsbwBEBaEzfvW_11git_metrics7service4diffINtB4_7ServiceNtNtNtB6_7backend4git211Git2BackendE13stack_metricsB6_
FNDA:7,_RNvMNtNtCsbwBEBaEzfvW_11git_metrics7service4diffINtB4_7ServiceNtNtNtB6_7backend4mock11MockBackendE13stack_metricsB6_
FNDA:6,_RNvMNtNtCsbwBEBaEzfvW_11git_metrics7service4diffINtB4_7ServiceNtNtNtB6_7backend7command14CommandBackendE13stack_metricsB6_
FNDA:7,_RNvMNtNtCsbwBEBaEzfvW_11git_metrics7service4diffINtB4_7ServiceNtNtNtB6_7backend4git211Git2BackendE4diffB6_
FNDA:4,_RNvMNtNtCsbwBEBaEzfvW_11git_metrics7service4diffINtB4_7ServiceNtNtNtB6_7backend4mock11MockBackendE4diffB6_
FNDA:5,_RNvMNtNtCsbwBEBaEzfvW_11git_metrics7service4diffINtB4_7ServiceNtNtNtB6_7backend7command14CommandBackendE4diffB6_
FNDA:1,_RNvNtNtNtCsbwBEBaEzfvW_11git_metrics7service4diff5testss_54should_render_diff_with_single_target_keeping_previous
FNDA:1,_RNvNtNtNtCsbwBEBaEzfvW_11git_metrics7service4diff5testss_36should_render_diff_with_range_target
FNF:4
FNH:4
DA:12,22
DA:13,22
DA:14,22
DA:15,22
DA:16,22
DA:17,22
DA:18,22
DA:19,22
DA:20,72
DA:21,50
DA:22,50
DA:24,22
DA:25,22
DA:27,16
DA:28,16
DA:29,16
DA:30,6
DA:31,6
DA:32,6
DA:33,6
DA:35,10
DA:36,10
DA:37,10
DA:38,10
DA:42,16
DA:43,16
DA:54,1
DA:55,1
DA:56,1
DA:57,1
DA:58,1
DA:59,1
DA:60,1
DA:61,1
DA:62,1
DA:63,1
DA:64,1
DA:65,1
DA:66,1
DA:67,1
DA:68,1
DA:69,1
DA:70,1
DA:71,1
DA:72,1
DA:73,1
DA:74,1
DA:75,1
DA:76,1
DA:77,1
DA:78,1
DA:79,1
DA:80,1
DA:81,1
DA:82,1
DA:83,1
DA:84,1
DA:85,1
DA:86,1
DA:87,1
DA:88,1
DA:89,1
DA:90,1
DA:91,1
DA:92,1
DA:93,1
DA:94,1
DA:95,1
DA:96,1
DA:97,1
DA:98,1
DA:99,1
DA:100,1
DA:101,1
DA:102,1
DA:103,1
DA:104,1
DA:107,1
DA:108,1
DA:109,1
DA:110,1
DA:111,1
DA:112,1
DA:113,1
DA:114,1
DA:115,1
DA:116,1
DA:117,1
DA:118,1
DA:119,1
DA:120,1
DA:121,1
DA:122,1
DA:123,1
DA:124,1
DA:125,1
DA:126,1
DA:127,1
DA:128,1
DA:129,1
DA:130,1
DA:131,1
DA:132,1
DA:133,1
DA:134,1
DA:135,1
DA:136,1
DA:137,1
DA:138,1
DA:139,1
DA:140,1
DA:141,1
DA:142,1
DA:143,1
DA:144,1
DA:145,1
DA:146,1
DA:147,1
DA:148,1
DA:149,1
DA:150,1
DA:151,1
DA:152,1
DA:153,1
DA:154,1
DA:155,1
DA:156,1
DA:157,1
DA:158,1
DA:159,1
DA:160,1
DA:161,1
DA:162,1
DA:163,1
DA:164,1
DA:165,1
DA:166,1
DA:167,1
DA:168,1
DA:169,1
DA:170,1
DA:171,1
DA:172,1
DA:173,1
DA:174,1
DA:175,1
DA:176,1
DA:177,1
DA:178,1
DA:179,1
DA:180,1
DA:181,1
DA:182,1
DA:183,1
DA:184,1
DA:185,1
DA:186,1
DA:187,1
DA:188,1
DA:189,1
DA:190,1
DA:192,0
DA:193,0
DA:195,1
BRF:0
BRH:0
LF:164
LH:162
end_of_record
SF:/code/git-metrics/src/service/log.rs
FN:11,_RNvMNtNtCsbwBEBaEzfvW_11git_metrics7service3logINtB4_7ServiceNtNtNtB6_7backend4git211Git2BackendE3logB6_
FN:11,_RNvMNtNtCsbwBEBaEzfvW_11git_metrics7service3logINtB4_7ServiceNtNtNtB6_7backend4mock11MockBackendE3logB6_
FN:11,_RNvMNtNtCsbwBEBaEzfvW_11git_metrics7service3logINtB4_7ServiceNtNtNtB6_7backend7command14CommandBackendE3logB6_
FNDA:1,_RNvMNtNtCsbwBEBaEzfvW_11git_metrics7service3logINtB4_7ServiceNtNtNtB6_7backend4git211Git2BackendE3logB6_
FNDA:0,_RNvMNtNtCsbwBEBaEzfvW_11git_metrics7service3logINtB4_7ServiceNtNtNtB6_7backend4mock11MockBackendE3logB6_
FNDA:1,_RNvMNtNtCsbwBEBaEzfvW_11git_metrics7service3logINtB4_7ServiceNtNtNtB6_7backend7command14CommandBackendE3logB6_
FNF:1
FNH:1
DA:11,2
DA:12,2
DA:13,2
DA:14,6
DA:15,4
DA:16,4
DA:18,2
DA:19,2
BRF:0
BRH:0
LF:8
LH:8
end_of_record
SF:/code/git-metrics/src/service/mod.rs
FN:25,_RNvXNtCsbwBEBaEzfvW_11git_metrics7serviceNtB2_5ErrorINtNtCs2ke5FKHNm4X_4core7convert4FromNtNtNtB4_7backend4git25ErrorE4fromB4_
FN:25,_RNvXNtCsbwBEBaEzfvW_11git_metrics7serviceNtB2_5ErrorINtNtCs2ke5FKHNm4X_4core7convert4FromNtNtNtB4_7backend4mock5ErrorE4fromB4_
FN:25,_RNvXNtCsbwBEBaEzfvW_11git_metrics7serviceNtB2_5ErrorINtNtCs2ke5FKHNm4X_4core7convert4FromNtNtNtB4_7backend7command5ErrorE4fromB4_
FN:31,_RNvXs_NtCsbwBEBaEzfvW_11git_metrics7serviceNtB4_5ErrorNtNtB6_5error13DetailedError7details
FN:63,_RNvMs1_NtCsbwBEBaEzfvW_11git_metrics7serviceINtB5_7ServiceNtNtNtB7_7backend4git211Git2BackendE3newB7_
FN:63,_RNvMs1_NtCsbwBEBaEzfvW_11git_metrics7serviceINtB5_7ServiceNtNtNtB7_7backend4mock11MockBackendE3newB7_
FN:63,_RNvMs1_NtCsbwBEBaEzfvW_11git_metrics7serviceINtB5_7ServiceNtNtNtB7_7backend7command14CommandBackendE3newB7_
FN:67,_RNvMs1_NtCsbwBEBaEzfvW_11git_metrics7serviceINtB5_7ServiceNtNtNtB7_7backend4git211Git2BackendE18set_metric_changesB7_
FN:67,_RNvMs1_NtCsbwBEBaEzfvW_11git_metrics7serviceINtB5_7ServiceNtNtNtB7_7backend4mock11MockBackendE18set_metric_changesB7_
FN:67,_RNvMs1_NtCsbwBEBaEzfvW_11git_metrics7serviceINtB5_7ServiceNtNtNtB7_7backend7command14CommandBackendE18set_metric_changesB7_
FN:78,_RNvMs1_NtCsbwBEBaEzfvW_11git_metrics7serviceINtB5_7ServiceNtNtNtB7_7backend4git211Git2BackendE18get_metric_changesB7_
FN:78,_RNvMs1_NtCsbwBEBaEzfvW_11git_metrics7serviceINtB5_7ServiceNtNtNtB7_7backend4mock11MockBackendE18get_metric_changesB7_
FN:78,_RNvMs1_NtCsbwBEBaEzfvW_11git_metrics7serviceINtB5_7ServiceNtNtNtB7_7backend7command14CommandBackendE18get_metric_changesB7_
FN:82,_RNCNvMs1_NtCsbwBEBaEzfvW_11git_metrics7serviceINtB7_7ServiceNtNtNtB9_7backend4git211Git2BackendE18get_metric_changes0B9_
FN:82,_RNCNvMs1_NtCsbwBEBaEzfvW_11git_metrics7serviceINtB7_7ServiceNtNtNtB9_7backend4mock11MockBackendE18get_metric_changes0B9_
FN:82,_RNCNvMs1_NtCsbwBEBaEzfvW_11git_metrics7serviceINtB7_7ServiceNtNtNtB9_7backend7command14CommandBackendE18get_metric_changes0B9_
FN:86,_RNvMs1_NtCsbwBEBaEzfvW_11git_metrics7serviceINtB5_7ServiceNtNtNtB7_7backend4git211Git2BackendE11get_metricsB7_
FN:86,_RNvMs1_NtCsbwBEBaEzfvW_11git_metrics7serviceINtB5_7ServiceNtNtNtB7_7backend4mock11MockBackendE11get_metricsB7_
FN:86,_RNvMs1_NtCsbwBEBaEzfvW_11git_metrics7serviceINtB5_7ServiceNtNtNtB7_7backend7command14CommandBackendE11get_metricsB7_
FN:94,_RNCNvMs1_NtCsbwBEBaEzfvW_11git_metrics7serviceINtB7_7ServiceNtNtNtB9_7backend4git211Git2BackendE11get_metrics0B9_
FN:94,_RNCNvMs1_NtCsbwBEBaEzfvW_11git_metrics7serviceINtB7_7ServiceNtNtNtB9_7backend4mock11MockBackendE11get_metrics0B9_
FN:94,_RNCNvMs1_NtCsbwBEBaEzfvW_11git_metrics7serviceINtB7_7ServiceNtNtNtB9_7backend7command14CommandBackendE11get_metrics0B9_
FN:103,_RNvMs1_NtCsbwBEBaEzfvW_11git_metrics7serviceINtB5_7ServiceNtNtNtB7_7backend4git211Git2BackendE19set_metrics_for_refB7_
FN:103,_RNvMs1_NtCsbwBEBaEzfvW_11git_metrics7serviceINtB5_7ServiceNtNtNtB7_7backend4mock11MockBackendE19set_metrics_for_refB7_
FN:103,_RNvMs1_NtCsbwBEBaEzfvW_11git_metrics7serviceINtB5_7ServiceNtNtNtB7_7backend7command14CommandBackendE19set_metrics_for_refB7_
FN:13,_RNvXs4_NtCsbwBEBaEzfvW_11git_metrics7serviceNtB5_5ErrorNtNtCs2ke5FKHNm4X_4core3fmt7Display3fmt
FN:13,_RNvXs5_NtCsbwBEBaEzfvW_11git_metrics7serviceNtB5_5ErrorINtNtCs2ke5FKHNm4X_4core7convert4FromNtNtNtCsdxE0gjJwg7i_3std2io5error5ErrorE4from
FN:13,_RNvXs6_NtCsbwBEBaEzfvW_11git_metrics7serviceNtB5_5ErrorINtNtCs2ke5FKHNm4X_4core7convert4FromNtNtB7_8importer5ErrorE4from
FN:40,_RINvXNvXNvNtCsbwBEBaEzfvW_11git_metrics7service1__NtB8_10MetricListNtNtCslI84mjRi2PN_5serde2de11Deserialize11deserializeNtB3_14___FieldVisitorNtB15_7Visitor9visit_strNtNtCs6lm0jMM3zOD_9toml_edit2de5ErrorEBa_
FN:40,_RINvXs_NvXNvNtCsbwBEBaEzfvW_11git_metrics7service1__NtBa_10MetricListNtNtCslI84mjRi2PN_5serde2de11Deserialize11deserializeNtB5_7___FieldB15_11deserializeINtNtB17_5value23BorrowedStrDeserializerNtNtCs6lm0jMM3zOD_9toml_edit2de5ErrorEEBc_
FN:40,_RINvXs_NvXNvNtCsbwBEBaEzfvW_11git_metrics7service1__NtBa_10MetricListNtNtCslI84mjRi2PN_5serde2de11Deserialize11deserializeNtB5_7___FieldB15_11deserializeNtNtNtCs6lm0jMM3zOD_9toml_edit2de3key15KeyDeserializerEBc_
FN:40,_RNvXs0_NvXNvNtCsbwBEBaEzfvW_11git_metrics7service1__NtBa_10MetricListNtNtCslI84mjRi2PN_5serde2de11Deserialize11deserializeNtB5_9___VisitorNtB17_7Visitor9expecting
FN:40,_RINvXs0_NvXNvNtCsbwBEBaEzfvW_11git_metrics7service1__NtBb_10MetricListNtNtCslI84mjRi2PN_5serde2de11Deserialize11deserializeNtB6_9___VisitorNtB18_7Visitor9visit_seqNtNtNtCs6lm0jMM3zOD_9toml_edit2de5array14ArraySeqAccessEBd_
FN:40,_RINvXs0_NvXNvNtCsbwBEBaEzfvW_11git_metrics7service1__NtBb_10MetricListNtNtCslI84mjRi2PN_5serde2de11Deserialize11deserializeNtB6_9___VisitorNtB18_7Visitor9visit_mapINtNtNtCs6lm0jMM3zOD_9toml_edit2de7spanned19SpannedDeserializerNtNtB2G_5value17ValueDeserializerEEBd_
FN:40,_RINvXs0_NvXNvNtCsbwBEBaEzfvW_11git_metrics7service1__NtBb_10MetricListNtNtCslI84mjRi2PN_5serde2de11Deserialize11deserializeNtB6_9___VisitorNtB18_7Visitor9visit_mapNtNtNtCs6lm0jMM3zOD_9toml_edit2de5table14TableMapAccessEBd_
FN:40,_RINvXs0_NvXNvNtCsbwBEBaEzfvW_11git_metrics7service1__NtBb_10MetricListNtNtCslI84mjRi2PN_5serde2de11Deserialize11deserializeNtB6_9___VisitorNtB18_7Visitor9visit_mapNtNtNtCs6lm0jMM3zOD_9toml_edit2de8datetime20DatetimeDeserializerEBd_
FN:52,_RINvXNvXNvNtCsbwBEBaEzfvW_11git_metrics7services0_1__NtB8_10ChangeListNtNtCslI84mjRi2PN_5serde2de11Deserialize11deserializeNtB3_14___FieldVisitorNtB18_7Visitor9visit_strNtNtCs6lm0jMM3zOD_9toml_edit2de5ErrorEBa_
FN:52,_RINvXs_NvXNvNtCsbwBEBaEzfvW_11git_metrics7services0_1__NtBa_10ChangeListNtNtCslI84mjRi2PN_5serde2de11Deserialize11deserializeNtB5_7___FieldB18_11deserializeINtNtB1a_5value23BorrowedStrDeserializerNtNtCs6lm0jMM3zOD_9toml_edit2de5ErrorEEBc_
FN:52,_RINvXs_NvXNvNtCsbwBEBaEzfvW_11git_metrics7services0_1__NtBa_10ChangeListNtNtCslI84mjRi2PN_5serde2de11Deserialize11deserializeNtB5_7___FieldB18_11deserializeNtNtNtCs6lm0jMM3zOD_9toml_edit2de3key15KeyDeserializerEBc_
FN:52,_RNvXs0_NvXNvNtCsbwBEBaEzfvW_11git_metrics7services0_1__NtBa_10ChangeListNtNtCslI84mjRi2PN_5serde2de11Deserialize11deserializeNtB5_9___VisitorNtB1a_7Visitor9expecting
FN:52,_RINvXs0_NvXNvNtCsbwBEBaEzfvW_11git_metrics7services0_1__NtBb_10ChangeListNtNtCslI84mjRi2PN_5serde2de11Deserialize11deserializeNtB6_9___VisitorNtB1b_7Visitor9visit_seqNtNtNtCs6lm0jMM3zOD_9toml_edit2de5array14ArraySeqAccessEBd_
FN:52,_RINvXs0_NvXNvNtCsbwBEBaEzfvW_11git_metrics7services0_1__NtBb_10ChangeListNtNtCslI84mjRi2PN_5serde2de11Deserialize11deserializeNtB6_9___VisitorNtB1b_7Visitor9visit_mapINtNtNtCs6lm0jMM3zOD_9toml_edit2de7spanned19SpannedDeserializerNtNtB2J_5value17ValueDeserializerEEBd_
FN:52,_RINvXs0_NvXNvNtCsbwBEBaEzfvW_11git_metrics7services0_1__NtBb_10ChangeListNtNtCslI84mjRi2PN_5serde2de11Deserialize11deserializeNtB6_9___VisitorNtB1b_7Visitor9visit_mapNtNtNtCs6lm0jMM3zOD_9toml_edit2de5table14TableMapAccessEBd_
FN:52,_RINvXs0_NvXNvNtCsbwBEBaEzfvW_11git_metrics7services0_1__NtBb_10ChangeListNtNtCslI84mjRi2PN_5serde2de11Deserialize11deserializeNtB6_9___VisitorNtB1b_7Visitor9visit_mapNtNtNtCs6lm0jMM3zOD_9toml_edit2de8datetime20DatetimeDeserializerEBd_
FN:13,_RNvXs3_NtCsbwBEBaEzfvW_11git_metrics7serviceNtB5_5ErrorNtNtCs2ke5FKHNm4X_4core5error5Error6source
FN:40,_RNvXNvXNvNtCsbwBEBaEzfvW_11git_metrics7service1__NtB7_10MetricListNtNtCslI84mjRi2PN_5serde2de11Deserialize11deserializeNtB2_14___FieldVisitorNtB14_7Visitor9expecting
FN:40,_RINvXNvXNvNtCsbwBEBaEzfvW_11git_metrics7service1__NtB8_10MetricListNtNtCslI84mjRi2PN_5serde2de11Deserialize11deserializeNtB3_14___FieldVisitorNtB15_7Visitor9visit_u64pEBa_
FN:40,_RINvXNvXNvNtCsbwBEBaEzfvW_11git_metrics7service1__NtB8_10MetricListNtNtCslI84mjRi2PN_5serde2de11Deserialize11deserializeNtB3_14___FieldVisitorNtB15_7Visitor11visit_bytespEBa_
FN:47,_RNvXs0_NtCsbwBEBaEzfvW_11git_metrics7serviceNtB5_10MetricListINtNtCs2ke5FKHNm4X_4core7convert4FromINtNtCs2wnU2autU56_5alloc3vec3VecNtNtNtB7_6entity6metric6MetricEE4from
FN:52,_RNvXNvXNvNtCsbwBEBaEzfvW_11git_metrics7services0_1__NtB7_10ChangeListNtNtCslI84mjRi2PN_5serde2de11Deserialize11deserializeNtB2_14___FieldVisitorNtB17_7Visitor9expecting
FN:52,_RINvXNvXNvNtCsbwBEBaEzfvW_11git_metrics7services0_1__NtB8_10ChangeListNtNtCslI84mjRi2PN_5serde2de11Deserialize11deserializeNtB3_14___FieldVisitorNtB18_7Visitor9visit_u64pEBa_
FN:52,_RINvXNvXNvNtCsbwBEBaEzfvW_11git_metrics7services0_1__NtB8_10ChangeListNtNtCslI84mjRi2PN_5serde2de11Deserialize11deserializeNtB3_14___FieldVisitorNtB18_7Visitor11visit_bytespEBa_
FNDA:1,_RNvXNtCsbwBEBaEzfvW_11git_metrics7serviceNtB2_5ErrorINtNtCs2ke5FKHNm4X_4core7convert4FromNtNtNtB4_7backend4git25ErrorE4fromB4_
FNDA:0,_RNvXNtCsbwBEBaEzfvW_11git_metrics7serviceNtB2_5ErrorINtNtCs2ke5FKHNm4X_4core7convert4FromNtNtNtB4_7backend4mock5ErrorE4fromB4_
FNDA:1,_RNvXNtCsbwBEBaEzfvW_11git_metrics7serviceNtB2_5ErrorINtNtCs2ke5FKHNm4X_4core7convert4FromNtNtNtB4_7backend7command5ErrorE4fromB4_
FNDA:2,_RNvXs_NtCsbwBEBaEzfvW_11git_metrics7serviceNtB4_5ErrorNtNtB6_5error13DetailedError7details
FNDA:53,_RNvMs1_NtCsbwBEBaEzfvW_11git_metrics7serviceINtB5_7ServiceNtNtNtB7_7backend4git211Git2BackendE3newB7_
FNDA:10,_RNvMs1_NtCsbwBEBaEzfvW_11git_metrics7serviceINtB5_7ServiceNtNtNtB7_7backend4mock11MockBackendE3newB7_
FNDA:35,_RNvMs1_NtCsbwBEBaEzfvW_11git_metrics7serviceINtB5_7ServiceNtNtNtB7_7backend7command14CommandBackendE3newB7_
FNDA:28,_RNvMs1_NtCsbwBEBaEzfvW_11git_metrics7serviceINtB5_7ServiceNtNtNtB7_7backend4git211Git2BackendE18set_metric_changesB7_
FNDA:3,_RNvMs1_NtCsbwBEBaEzfvW_11git_metrics7serviceINtB5_7ServiceNtNtNtB7_7backend4mock11MockBackendE18set_metric_changesB7_
FNDA:14,_RNvMs1_NtCsbwBEBaEzfvW_11git_metrics7serviceINtB5_7ServiceNtNtNtB7_7backend7command14CommandBackendE18set_metric_changesB7_
FNDA:67,_RNvMs1_NtCsbwBEBaEzfvW_11git_metrics7serviceINtB5_7ServiceNtNtNtB7_7backend4git211Git2BackendE18get_metric_changesB7_
FNDA:23,_RNvMs1_NtCsbwBEBaEzfvW_11git_metrics7serviceINtB5_7ServiceNtNtNtB7_7backend4mock11MockBackendE18get_metric_changesB7_
FNDA:42,_RNvMs1_NtCsbwBEBaEzfvW_11git_metrics7serviceINtB5_7ServiceNtNtNtB7_7backend7command14CommandBackendE18get_metric_changesB7_
FNDA:42,_RNCNvMs1_NtCsbwBEBaEzfvW_11git_metrics7serviceINtB7_7ServiceNtNtNtB9_7backend4git211Git2BackendE18get_metric_changes0B9_
FNDA:1,_RNCNvMs1_NtCsbwBEBaEzfvW_11git_metrics7serviceINtB7_7ServiceNtNtNtB9_7backend4mock11MockBackendE18get_metric_changes0B9_
FNDA:26,_RNCNvMs1_NtCsbwBEBaEzfvW_11git_metrics7serviceINtB7_7ServiceNtNtNtB9_7backend7command14CommandBackendE18get_metric_changes0B9_
FNDA:33,_RNvMs1_NtCsbwBEBaEzfvW_11git_metrics7serviceINtB5_7ServiceNtNtNtB7_7backend4git211Git2BackendE11get_metricsB7_
FNDA:20,_RNvMs1_NtCsbwBEBaEzfvW_11git_metrics7serviceINtB5_7ServiceNtNtNtB7_7backend4mock11MockBackendE11get_metricsB7_
FNDA:24,_RNvMs1_NtCsbwBEBaEzfvW_11git_metrics7serviceINtB5_7ServiceNtNtNtB7_7backend7command14CommandBackendE11get_metricsB7_
FNDA:15,_RNCNvMs1_NtCsbwBEBaEzfvW_11git_metrics7serviceINtB7_7ServiceNtNtNtB9_7backend4git211Git2BackendE11get_metrics0B9_
FNDA:11,_RNCNvMs1_NtCsbwBEBaEzfvW_11git_metrics7serviceINtB7_7ServiceNtNtNtB9_7backend4mock11MockBackendE11get_metrics0B9_
FNDA:11,_RNCNvMs1_NtCsbwBEBaEzfvW_11git_metrics7serviceINtB7_7ServiceNtNtNtB9_7backend7command14CommandBackendE11get_metrics0B9_
FNDA:6,_RNvMs1_NtCsbwBEBaEzfvW_11git_metrics7serviceINtB5_7ServiceNtNtNtB7_7backend4git211Git2BackendE19set_metrics_for_refB7_
FNDA:0,_RNvMs1_NtCsbwBEBaEzfvW_11git_metrics7serviceINtB5_7ServiceNtNtNtB7_7backend4mock11MockBackendE19set_metrics_for_refB7_
FNDA:4,_RNvMs1_NtCsbwBEBaEzfvW_11git_metrics7serviceINtB5_7ServiceNtNtNtB7_7backend7command14CommandBackendE19set_metrics_for_refB7_
FNDA:2,_RNvXs4_NtCsbwBEBaEzfvW_11git_metrics7serviceNtB5_5ErrorNtNtCs2ke5FKHNm4X_4core3fmt7Display3fmt
FNDA:0,_RNvXs5_NtCsbwBEBaEzfvW_11git_metrics7serviceNtB5_5ErrorINtNtCs2ke5FKHNm4X_4core7convert4FromNtNtNtCsdxE0gjJwg7i_3std2io5error5ErrorE4from
FNDA:0,_RNvXs6_NtCsbwBEBaEzfvW_11git_metrics7serviceNtB5_5ErrorINtNtCs2ke5FKHNm4X_4core7convert4FromNtNtB7_8importer5ErrorE4from
FNDA:36,_RINvXNvXNvNtCsbwBEBaEzfvW_11git_metrics7service1__NtB8_10MetricListNtNtCslI84mjRi2PN_5serde2de11Deserialize11deserializeNtB3_14___FieldVisitorNtB15_7Visitor9visit_strNtNtCs6lm0jMM3zOD_9toml_edit2de5ErrorEBa_
FNDA:0,_RINvXs_NvXNvNtCsbwBEBaEzfvW_11git_metrics7service1__NtBa_10MetricListNtNtCslI84mjRi2PN_5serde2de11Deserialize11deserializeNtB5_7___FieldB15_11deserializeINtNtB17_5value23BorrowedStrDeserializerNtNtCs6lm0jMM3zOD_9toml_edit2de5ErrorEEBc_
FNDA:36,_RINvXs_NvXNvNtCsbwBEBaEzfvW_11git_metrics7service1__NtBa_10MetricListNtNtCslI84mjRi2PN_5serde2de11Deserialize11deserializeNtB5_7___FieldB15_11deserializeNtNtNtCs6lm0jMM3zOD_9toml_edit2de3key15KeyDeserializerEBc_
FNDA:0,_RNvXs0_NvXNvNtCsbwBEBaEzfvW_11git_metrics7service1__NtBa_10MetricListNtNtCslI84mjRi2PN_5serde2de11Deserialize11deserializeNtB5_9___VisitorNtB17_7Visitor9expecting
FNDA:0,_RINvXs0_NvXNvNtCsbwBEBaEzfvW_11git_metrics7service1__NtBb_10MetricListNtNtCslI84mjRi2PN_5serde2de11Deserialize11deserializeNtB6_9___VisitorNtB18_7Visitor9visit_seqNtNtNtCs6lm0jMM3zOD_9toml_edit2de5array14ArraySeqAccessEBd_
FNDA:0,_RINvXs0_NvXNvNtCsbwBEBaEzfvW_11git_metrics7service1__NtBb_10MetricListNtNtCslI84mjRi2PN_5serde2de11Deserialize11deserializeNtB6_9___VisitorNtB18_7Visitor9visit_mapINtNtNtCs6lm0jMM3zOD_9toml_edit2de7spanned19SpannedDeserializerNtNtB2G_5value17ValueDeserializerEEBd_
FNDA:37,_RINvXs0_NvXNvNtCsbwBEBaEzfvW_11git_metrics7service1__NtBb_10MetricListNtNtCslI84mjRi2PN_5serde2de11Deserialize11deserializeNtB6_9___VisitorNtB18_7Visitor9visit_mapNtNtNtCs6lm0jMM3zOD_9toml_edit2de5table14TableMapAccessEBd_
FNDA:0,_RINvXs0_NvXNvNtCsbwBEBaEzfvW_11git_metrics7service1__NtBb_10MetricListNtNtCslI84mjRi2PN_5serde2de11Deserialize11deserializeNtB6_9___VisitorNtB18_7Visitor9visit_mapNtNtNtCs6lm0jMM3zOD_9toml_edit2de8datetime20DatetimeDeserializerEBd_
FNDA:69,_RINvXNvXNvNtCsbwBEBaEzfvW_11git_metrics7services0_1__NtB8_10ChangeListNtNtCslI84mjRi2PN_5serde2de11Deserialize11deserializeNtB3_14___FieldVisitorNtB18_7Visitor9visit_strNtNtCs6lm0jMM3zOD_9toml_edit2de5ErrorEBa_
FNDA:0,_RINvXs_NvXNvNtCsbwBEBaEzfvW_11git_metrics7services0_1__NtBa_10ChangeListNtNtCslI84mjRi2PN_5serde2de11Deserialize11deserializeNtB5_7___FieldB18_11deserializeINtNtB1a_5value23BorrowedStrDeserializerNtNtCs6lm0jMM3zOD_9toml_edit2de5ErrorEEBc_
FNDA:69,_RINvXs_NvXNvNtCsbwBEBaEzfvW_11git_metrics7services0_1__NtBa_10ChangeListNtNtCslI84mjRi2PN_5serde2de11Deserialize11deserializeNtB5_7___FieldB18_11deserializeNtNtNtCs6lm0jMM3zOD_9toml_edit2de3key15KeyDeserializerEBc_
FNDA:0,_RNvXs0_NvXNvNtCsbwBEBaEzfvW_11git_metrics7services0_1__NtBa_10ChangeListNtNtCslI84mjRi2PN_5serde2de11Deserialize11deserializeNtB5_9___VisitorNtB1a_7Visitor9expecting
FNDA:0,_RINvXs0_NvXNvNtCsbwBEBaEzfvW_11git_metrics7services0_1__NtBb_10ChangeListNtNtCslI84mjRi2PN_5serde2de11Deserialize11deserializeNtB6_9___VisitorNtB1b_7Visitor9visit_seqNtNtNtCs6lm0jMM3zOD_9toml_edit2de5array14ArraySeqAccessEBd_
FNDA:0,_RINvXs0_NvXNvNtCsbwBEBaEzfvW_11git_metrics7services0_1__NtBb_10ChangeListNtNtCslI84mjRi2PN_5serde2de11Deserialize11deserializeNtB6_9___VisitorNtB1b_7Visitor9visit_mapINtNtNtCs6lm0jMM3zOD_9toml_edit2de7spanned19SpannedDeserializerNtNtB2J_5value17ValueDeserializerEEBd_
FNDA:69,_RINvXs0_NvXNvNtCsbwBEBaEzfvW_11git_metrics7services0_1__NtBb_10ChangeListNtNtCslI84mjRi2PN_5serde2de11Deserialize11deserializeNtB6_9___VisitorNtB1b_7Visitor9visit_mapNtNtNtCs6lm0jMM3zOD_9toml_edit2de5table14TableMapAccessEBd_
FNDA:0,_RINvXs0_NvXNvNtCsbwBEBaEzfvW_11git_metrics7services0_1__NtBb_10ChangeListNtNtCslI84mjRi2PN_5serde2de11Deserialize11deserializeNtB6_9___VisitorNtB1b_7Visitor9visit_mapNtNtNtCs6lm0jMM3zOD_9toml_edit2de8datetime20DatetimeDeserializerEBd_
FNDA:0,_RNvXs3_NtCsbwBEBaEzfvW_11git_metrics7serviceNtB5_5ErrorNtNtCs2ke5FKHNm4X_4core5error5Error6source
FNDA:0,_RNvXNvXNvNtCsbwBEBaEzfvW_11git_metrics7service1__NtB7_10MetricListNtNtCslI84mjRi2PN_5serde2de11Deserialize11deserializeNtB2_14___FieldVisitorNtB14_7Visitor9expecting
FNDA:0,_RINvXNvXNvNtCsbwBEBaEzfvW_11git_metrics7service1__NtB8_10MetricListNtNtCslI84mjRi2PN_5serde2de11Deserialize11deserializeNtB3_14___FieldVisitorNtB15_7Visitor9visit_u64pEBa_
FNDA:0,_RINvXNvXNvNtCsbwBEBaEzfvW_11git_metrics7service1__NtB8_10MetricListNtNtCslI84mjRi2PN_5serde2de11Deserialize11deserializeNtB3_14___FieldVisitorNtB15_7Visitor11visit_bytespEBa_
FNDA:0,_RNvXs0_NtCsbwBEBaEzfvW_11git_metrics7serviceNtB5_10MetricListINtNtCs2ke5FKHNm4X_4core7convert4FromINtNtCs2wnU2autU56_5alloc3vec3VecNtNtNtB7_6entity6metric6MetricEE4from
FNDA:0,_RNvXNvXNvNtCsbwBEBaEzfvW_11git_metrics7services0_1__NtB7_10ChangeListNtNtCslI84mjRi2PN_5serde2de11Deserialize11deserializeNtB2_14___FieldVisitorNtB17_7Visitor9expecting
FNDA:0,_RINvXNvXNvNtCsbwBEBaEzfvW_11git_metrics7services0_1__NtB8_10ChangeListNtNtCslI84mjRi2PN_5serde2de11Deserialize11deserializeNtB3_14___FieldVisitorNtB18_7Visitor9visit_u64pEBa_
FNDA:0,_RINvXNvXNvNtCsbwBEBaEzfvW_11git_metrics7services0_1__NtB8_10ChangeListNtNtCslI84mjRi2PN_5serde2de11Deserialize11deserializeNtB3_14___FieldVisitorNtB18_7Visitor11visit_bytespEBa_
FNF:13
FNH:12
DA:13,2
DA:25,2
DA:26,2
DA:27,2
DA:31,2
DA:32,2
DA:33,0
DA:34,2
DA:35,0
DA:37,2
DA:40,73
DA:47,0
DA:48,0
DA:49,0
DA:52,138
DA:63,98
DA:64,98
DA:65,98
DA:67,45
DA:68,45
DA:69,45
DA:70,45
DA:71,45
DA:72,45
DA:73,45
DA:74,45
DA:75,45
DA:76,45
DA:78,132
DA:79,132
DA:80,132
DA:81,132
DA:82,132
DA:83,132
DA:84,132
DA:86,77
DA:87,77
DA:88,77
DA:89,77
DA:90,77
DA:91,77
DA:92,77
DA:93,77
DA:94,77
DA:95,77
DA:97,77
DA:99,77
DA:100,77
DA:101,77
DA:103,10
DA:104,10
DA:105,10
DA:106,10
DA:107,10
DA:108,10
DA:109,10
DA:110,10
DA:111,10
DA:112,10
BRF:0
BRH:0
LF:61
LH:56
end_of_record
SF:/code/git-metrics/src/service/pull.rs
FN:9,_RNvMNtNtCsbwBEBaEzfvW_11git_metrics7service4pullINtB4_7ServiceNtNtNtB6_7backend4git211Git2BackendE4pullB6_
FN:9,_RNvMNtNtCsbwBEBaEzfvW_11git_metrics7service4pullINtB4_7ServiceNtNtNtB6_7backend4mock11MockBackendE4pullB6_
FN:9,_RNvMNtNtCsbwBEBaEzfvW_11git_metrics7service4pullINtB4_7ServiceNtNtNtB6_7backend7command14CommandBackendE4pullB6_
FNDA:6,_RNvMNtNtCsbwBEBaEzfvW_11git_metrics7service4pullINtB4_7ServiceNtNtNtB6_7backend4git211Git2BackendE4pullB6_
FNDA:0,_RNvMNtNtCsbwBEBaEzfvW_11git_metrics7service4pullINtB4_7ServiceNtNtNtB6_7backend4mock11MockBackendE4pullB6_
FNDA:6,_RNvMNtNtCsbwBEBaEzfvW_11git_metrics7service4pullINtB4_7ServiceNtNtNtB6_7backend7command14CommandBackendE4pullB6_
FNF:1
FNH:1
DA:9,12
DA:10,12
DA:11,12
DA:12,12
DA:13,12
BRF:0
BRH:0
LF:5
LH:5
end_of_record
SF:/code/git-metrics/src/service/push.rs
FN:7,_RNvMNtNtCsbwBEBaEzfvW_11git_metrics7service4pushINtB4_7ServiceNtNtNtB6_7backend4git211Git2BackendE18prune_notes_in_refB6_
FN:7,_RNvMNtNtCsbwBEBaEzfvW_11git_metrics7service4pushINtB4_7ServiceNtNtNtB6_7backend4mock11MockBackendE18prune_notes_in_refB6_
FN:7,_RNvMNtNtCsbwBEBaEzfvW_11git_metrics7service4pushINtB4_7ServiceNtNtNtB6_7backend7command14CommandBackendE18prune_notes_in_refB6_
FN:22,_RNvMs_NtNtCsbwBEBaEzfvW_11git_metrics7service4pushINtB6_7ServiceNtNtNtB8_7backend4git211Git2BackendE4pushB8_
FN:22,_RNvMs_NtNtCsbwBEBaEzfvW_11git_metrics7service4pushINtB6_7ServiceNtNtNtB8_7backend4mock11MockBackendE4pushB8_
FN:22,_RNvMs_NtNtCsbwBEBaEzfvW_11git_metrics7service4pushINtB6_7ServiceNtNtNtB8_7backend7command14CommandBackendE4pushB8_
FN:26,_RNCNvMs_NtNtCsbwBEBaEzfvW_11git_metrics7service4pushINtB8_7ServiceNtNtNtBa_7backend4git211Git2BackendE4push0Ba_
FN:26,_RNCNvMs_NtNtCsbwBEBaEzfvW_11git_metrics7service4pushINtB8_7ServiceNtNtNtBa_7backend4mock11MockBackendE4push0Ba_
FN:26,_RNCNvMs_NtNtCsbwBEBaEzfvW_11git_metrics7service4pushINtB8_7ServiceNtNtNtBa_7backend7command14CommandBackendE4push0Ba_
FN:30,_RNCNvMs_NtNtCsbwBEBaEzfvW_11git_metrics7service4pushINtB8_7ServiceNtNtNtBa_7backend4git211Git2BackendE4pushs_0Ba_
FN:30,_RNCNvMs_NtNtCsbwBEBaEzfvW_11git_metrics7service4pushINtB8_7ServiceNtNtNtBa_7backend4mock11MockBackendE4pushs_0Ba_
FN:30,_RNCNvMs_NtNtCsbwBEBaEzfvW_11git_metrics7service4pushINtB8_7ServiceNtNtNtBa_7backend7command14CommandBackendE4pushs_0Ba_
FNDA:5,_RNvMNtNtCsbwBEBaEzfvW_11git_metrics7service4pushINtB4_7ServiceNtNtNtB6_7backend4git211Git2BackendE18prune_notes_in_refB6_
FNDA:0,_RNvMNtNtCsbwBEBaEzfvW_11git_metrics7service4pushINtB4_7ServiceNtNtNtB6_7backend4mock11MockBackendE18prune_notes_in_refB6_
FNDA:3,_RNvMNtNtCsbwBEBaEzfvW_11git_metrics7service4pushINtB4_7ServiceNtNtNtB6_7backend7command14CommandBackendE18prune_notes_in_refB6_
FNDA:6,_RNvMs_NtNtCsbwBEBaEzfvW_11git_metrics7service4pushINtB6_7ServiceNtNtNtB8_7backend4git211Git2BackendE4pushB8_
FNDA:0,_RNvMs_NtNtCsbwBEBaEzfvW_11git_metrics7service4pushINtB6_7ServiceNtNtNtB8_7backend4mock11MockBackendE4pushB8_
FNDA:4,_RNvMs_NtNtCsbwBEBaEzfvW_11git_metrics7service4pushINtB6_7ServiceNtNtNtB8_7backend7command14CommandBackendE4pushB8_
FNDA:6,_RNCNvMs_NtNtCsbwBEBaEzfvW_11git_metrics7service4pushINtB8_7ServiceNtNtNtBa_7backend4git211Git2BackendE4push0Ba_
FNDA:0,_RNCNvMs_NtNtCsbwBEBaEzfvW_11git_metrics7service4pushINtB8_7ServiceNtNtNtBa_7backend4mock11MockBackendE4push0Ba_
FNDA:4,_RNCNvMs_NtNtCsbwBEBaEzfvW_11git_metrics7service4pushINtB8_7ServiceNtNtNtBa_7backend7command14CommandBackendE4push0Ba_
FNDA:0,_RNCNvMs_NtNtCsbwBEBaEzfvW_11git_metrics7service4pushINtB8_7ServiceNtNtNtBa_7backend4git211Git2BackendE4pushs_0Ba_
FNDA:0,_RNCNvMs_NtNtCsbwBEBaEzfvW_11git_metrics7service4pushINtB8_7ServiceNtNtNtBa_7backend4mock11MockBackendE4pushs_0Ba_
FNDA:0,_RNCNvMs_NtNtCsbwBEBaEzfvW_11git_metrics7service4pushINtB8_7ServiceNtNtNtBa_7backend7command14CommandBackendE4pushs_0Ba_
FNF:4
FNH:3
DA:7,8
DA:8,8
DA:9,16
DA:10,8
DA:12,8
DA:13,8
DA:22,10
DA:23,10
DA:24,10
DA:26,10
DA:27,10
DA:28,10
DA:29,10
DA:30,10
DA:31,10
DA:33,10
DA:35,10
DA:36,10
DA:37,10
DA:38,10
DA:39,10
DA:40,0
DA:43,10
DA:44,8
DA:46,8
DA:47,10
BRF:0
BRH:0
LF:28
LH:26
end_of_record
SF:/code/git-metrics/src/service/remove.rs
FN:10,_RNvMNtNtCsbwBEBaEzfvW_11git_metrics7service6removeINtB4_7ServiceNtNtNtB6_7backend4git211Git2BackendE6removeB6_
FN:10,_RNvMNtNtCsbwBEBaEzfvW_11git_metrics7service6removeINtB4_7ServiceNtNtNtB6_7backend4mock11MockBackendE6removeB6_
FN:10,_RNvMNtNtCsbwBEBaEzfvW_11git_metrics7service6removeINtB4_7ServiceNtNtNtB6_7backend7command14CommandBackendE6removeB6_
FNDA:0,_RNvMNtNtCsbwBEBaEzfvW_11git_metrics7service6removeINtB4_7ServiceNtNtNtB6_7backend4git211Git2BackendE6removeB6_
FNDA:1,_RNvMNtNtCsbwBEBaEzfvW_11git_metrics7service6removeINtB4_7ServiceNtNtNtB6_7backend4mock11MockBackendE6removeB6_
FNDA:0,_RNvMNtNtCsbwBEBaEzfvW_11git_metrics7service6removeINtB4_7ServiceNtNtNtB6_7backend7command14CommandBackendE6removeB6_
FNF:1
FNH:1
DA:10,1
DA:11,1
DA:12,1
DA:13,0
DA:14,0
DA:15,0
DA:16,0
DA:17,0
DA:18,0
DA:19,1
DA:21,1
DA:22,1
BRF:0
BRH:0
LF:12
LH:6
end_of_record
SF:/code/git-metrics/src/service/show.rs
FN:10,_RNvMNtNtCsbwBEBaEzfvW_11git_metrics7service4showINtB4_7ServiceNtNtNtB6_7backend4git211Git2BackendE4showB6_
FN:10,_RNvMNtNtCsbwBEBaEzfvW_11git_metrics7service4showINtB4_7ServiceNtNtNtB6_7backend4mock11MockBackendE4showB6_
FN:10,_RNvMNtNtCsbwBEBaEzfvW_11git_metrics7service4showINtB4_7ServiceNtNtNtB6_7backend7command14CommandBackendE4showB6_
FNDA:5,_RNvMNtNtCsbwBEBaEzfvW_11git_metrics7service4showINtB4_7ServiceNtNtNtB6_7backend4git211Git2BackendE4showB6_
FNDA:2,_RNvMNtNtCsbwBEBaEzfvW_11git_metrics7service4showINtB4_7ServiceNtNtNtB6_7backend4mock11MockBackendE4showB6_
FNDA:5,_RNvMNtNtCsbwBEBaEzfvW_11git_metrics7service4showINtB4_7ServiceNtNtNtB6_7backend7command14CommandBackendE4showB6_
FNF:1
FNH:1
DA:10,12
DA:11,12
DA:12,12
BRF:0
BRH:0
LF:3
LH:3
end_of_record
